
user/_grind:     file format elf64-littleriscv


Disassembly of section .text:

0000000000000000 <do_rand>:
#include "kernel/riscv.h"

// from FreeBSD.
int
do_rand(unsigned long *ctx)
{
       0:	1141                	addi	sp,sp,-16
       2:	e406                	sd	ra,8(sp)
       4:	e022                	sd	s0,0(sp)
       6:	0800                	addi	s0,sp,16
 * October 1988, p. 1195.
 */
    long hi, lo, x;

    /* Transform to [1, 0x7ffffffe] range. */
    x = (*ctx % 0x7ffffffe) + 1;
       8:	611c                	ld	a5,0(a0)
       a:	0017d693          	srli	a3,a5,0x1
       e:	c0000737          	lui	a4,0xc0000
      12:	0705                	addi	a4,a4,1 # ffffffffc0000001 <base+0xffffffffbfffdbf9>
      14:	1706                	slli	a4,a4,0x21
      16:	0725                	addi	a4,a4,9
      18:	02e6b733          	mulhu	a4,a3,a4
      1c:	8375                	srli	a4,a4,0x1d
      1e:	01e71693          	slli	a3,a4,0x1e
      22:	40e68733          	sub	a4,a3,a4
      26:	0706                	slli	a4,a4,0x1
      28:	8f99                	sub	a5,a5,a4
      2a:	0785                	addi	a5,a5,1
    hi = x / 127773;
    lo = x % 127773;
      2c:	1fe406b7          	lui	a3,0x1fe40
      30:	b7968693          	addi	a3,a3,-1159 # 1fe3fb79 <base+0x1fe3d771>
      34:	41a70737          	lui	a4,0x41a70
      38:	5af70713          	addi	a4,a4,1455 # 41a705af <base+0x41a6e1a7>
      3c:	1702                	slli	a4,a4,0x20
      3e:	9736                	add	a4,a4,a3
      40:	02e79733          	mulh	a4,a5,a4
      44:	873d                	srai	a4,a4,0xf
      46:	43f7d693          	srai	a3,a5,0x3f
      4a:	8f15                	sub	a4,a4,a3
      4c:	66fd                	lui	a3,0x1f
      4e:	31d68693          	addi	a3,a3,797 # 1f31d <base+0x1cf15>
      52:	02d706b3          	mul	a3,a4,a3
      56:	8f95                	sub	a5,a5,a3
    x = 16807 * lo - 2836 * hi;
      58:	6691                	lui	a3,0x4
      5a:	1a768693          	addi	a3,a3,423 # 41a7 <base+0x1d9f>
      5e:	02d787b3          	mul	a5,a5,a3
      62:	76fd                	lui	a3,0xfffff
      64:	4ec68693          	addi	a3,a3,1260 # fffffffffffff4ec <base+0xffffffffffffd0e4>
      68:	02d70733          	mul	a4,a4,a3
      6c:	97ba                	add	a5,a5,a4
    if (x < 0)
      6e:	0007ca63          	bltz	a5,82 <do_rand+0x82>
        x += 0x7fffffff;
    /* Transform to [0, 0x7ffffffd] range. */
    x--;
      72:	17fd                	addi	a5,a5,-1
    *ctx = x;
      74:	e11c                	sd	a5,0(a0)
    return (x);
}
      76:	0007851b          	sext.w	a0,a5
      7a:	60a2                	ld	ra,8(sp)
      7c:	6402                	ld	s0,0(sp)
      7e:	0141                	addi	sp,sp,16
      80:	8082                	ret
        x += 0x7fffffff;
      82:	80000737          	lui	a4,0x80000
      86:	fff74713          	not	a4,a4
      8a:	97ba                	add	a5,a5,a4
      8c:	b7dd                	j	72 <do_rand+0x72>

000000000000008e <rand>:

unsigned long rand_next = 1;

int
rand(void)
{
      8e:	1141                	addi	sp,sp,-16
      90:	e406                	sd	ra,8(sp)
      92:	e022                	sd	s0,0(sp)
      94:	0800                	addi	s0,sp,16
    return (do_rand(&rand_next));
      96:	00002517          	auipc	a0,0x2
      9a:	f6a50513          	addi	a0,a0,-150 # 2000 <rand_next>
      9e:	00000097          	auipc	ra,0x0
      a2:	f62080e7          	jalr	-158(ra) # 0 <do_rand>
}
      a6:	60a2                	ld	ra,8(sp)
      a8:	6402                	ld	s0,0(sp)
      aa:	0141                	addi	sp,sp,16
      ac:	8082                	ret

00000000000000ae <go>:

void
go(int which_child)
{
      ae:	7171                	addi	sp,sp,-176
      b0:	f506                	sd	ra,168(sp)
      b2:	f122                	sd	s0,160(sp)
      b4:	ed26                	sd	s1,152(sp)
      b6:	1900                	addi	s0,sp,176
      b8:	84aa                	mv	s1,a0
  int fd = -1;
  static char buf[999];
  char *break0 = sbrk(0);
      ba:	4501                	li	a0,0
      bc:	00001097          	auipc	ra,0x1
      c0:	ecc080e7          	jalr	-308(ra) # f88 <sbrk>
      c4:	f4a43c23          	sd	a0,-168(s0)
  uint64 iters = 0;

  mkdir("grindir");
      c8:	00001517          	auipc	a0,0x1
      cc:	36850513          	addi	a0,a0,872 # 1430 <malloc+0x106>
      d0:	00001097          	auipc	ra,0x1
      d4:	e98080e7          	jalr	-360(ra) # f68 <mkdir>
  if(chdir("grindir") != 0){
      d8:	00001517          	auipc	a0,0x1
      dc:	35850513          	addi	a0,a0,856 # 1430 <malloc+0x106>
      e0:	00001097          	auipc	ra,0x1
      e4:	e90080e7          	jalr	-368(ra) # f70 <chdir>
      e8:	c905                	beqz	a0,118 <go+0x6a>
      ea:	e94a                	sd	s2,144(sp)
      ec:	e54e                	sd	s3,136(sp)
      ee:	e152                	sd	s4,128(sp)
      f0:	fcd6                	sd	s5,120(sp)
      f2:	f8da                	sd	s6,112(sp)
      f4:	f4de                	sd	s7,104(sp)
      f6:	f0e2                	sd	s8,96(sp)
      f8:	ece6                	sd	s9,88(sp)
      fa:	e8ea                	sd	s10,80(sp)
      fc:	e4ee                	sd	s11,72(sp)
    printf("grind: chdir grindir failed\n");
      fe:	00001517          	auipc	a0,0x1
     102:	33a50513          	addi	a0,a0,826 # 1438 <malloc+0x10e>
     106:	00001097          	auipc	ra,0x1
     10a:	168080e7          	jalr	360(ra) # 126e <printf>
    exit(1);
     10e:	4505                	li	a0,1
     110:	00001097          	auipc	ra,0x1
     114:	df0080e7          	jalr	-528(ra) # f00 <exit>
     118:	e94a                	sd	s2,144(sp)
     11a:	e54e                	sd	s3,136(sp)
     11c:	e152                	sd	s4,128(sp)
     11e:	fcd6                	sd	s5,120(sp)
     120:	f8da                	sd	s6,112(sp)
     122:	f4de                	sd	s7,104(sp)
     124:	f0e2                	sd	s8,96(sp)
     126:	ece6                	sd	s9,88(sp)
     128:	e8ea                	sd	s10,80(sp)
     12a:	e4ee                	sd	s11,72(sp)
  }
  chdir("/");
     12c:	00001517          	auipc	a0,0x1
     130:	33450513          	addi	a0,a0,820 # 1460 <malloc+0x136>
     134:	00001097          	auipc	ra,0x1
     138:	e3c080e7          	jalr	-452(ra) # f70 <chdir>
     13c:	00001c17          	auipc	s8,0x1
     140:	334c0c13          	addi	s8,s8,820 # 1470 <malloc+0x146>
     144:	c489                	beqz	s1,14e <go+0xa0>
     146:	00001c17          	auipc	s8,0x1
     14a:	322c0c13          	addi	s8,s8,802 # 1468 <malloc+0x13e>
  uint64 iters = 0;
     14e:	4481                	li	s1,0
  int fd = -1;
     150:	5cfd                	li	s9,-1
  
  while(1){
    iters++;
    if((iters % 500) == 0)
     152:	106259b7          	lui	s3,0x10625
     156:	dd398993          	addi	s3,s3,-557 # 10624dd3 <base+0x106229cb>
     15a:	09be                	slli	s3,s3,0xf
     15c:	8d598993          	addi	s3,s3,-1835
     160:	09ca                	slli	s3,s3,0x12
     162:	80098993          	addi	s3,s3,-2048
     166:	fcf98993          	addi	s3,s3,-49
     16a:	1f400b93          	li	s7,500
      write(1, which_child?"B":"A", 1);
     16e:	4a05                	li	s4,1
    int what = rand() % 23;
     170:	b2164ab7          	lui	s5,0xb2164
     174:	2c9a8a93          	addi	s5,s5,713 # ffffffffb21642c9 <base+0xffffffffb2161ec1>
     178:	4b59                	li	s6,22
     17a:	00001917          	auipc	s2,0x1
     17e:	5c690913          	addi	s2,s2,1478 # 1740 <malloc+0x416>
      close(fd1);
      unlink("c");
    } else if(what == 22){
      // echo hi | cat
      int aa[2], bb[2];
      if(pipe(aa) < 0){
     182:	f6840d93          	addi	s11,s0,-152
     186:	a839                	j	1a4 <go+0xf6>
      close(open("grindir/../a", O_CREATE|O_RDWR));
     188:	20200593          	li	a1,514
     18c:	00001517          	auipc	a0,0x1
     190:	2ec50513          	addi	a0,a0,748 # 1478 <malloc+0x14e>
     194:	00001097          	auipc	ra,0x1
     198:	dac080e7          	jalr	-596(ra) # f40 <open>
     19c:	00001097          	auipc	ra,0x1
     1a0:	d8c080e7          	jalr	-628(ra) # f28 <close>
    iters++;
     1a4:	0485                	addi	s1,s1,1
    if((iters % 500) == 0)
     1a6:	0024d793          	srli	a5,s1,0x2
     1aa:	0337b7b3          	mulhu	a5,a5,s3
     1ae:	8391                	srli	a5,a5,0x4
     1b0:	037787b3          	mul	a5,a5,s7
     1b4:	00f49963          	bne	s1,a5,1c6 <go+0x118>
      write(1, which_child?"B":"A", 1);
     1b8:	8652                	mv	a2,s4
     1ba:	85e2                	mv	a1,s8
     1bc:	8552                	mv	a0,s4
     1be:	00001097          	auipc	ra,0x1
     1c2:	d62080e7          	jalr	-670(ra) # f20 <write>
    int what = rand() % 23;
     1c6:	00000097          	auipc	ra,0x0
     1ca:	ec8080e7          	jalr	-312(ra) # 8e <rand>
     1ce:	035507b3          	mul	a5,a0,s5
     1d2:	9381                	srli	a5,a5,0x20
     1d4:	9fa9                	addw	a5,a5,a0
     1d6:	4047d79b          	sraiw	a5,a5,0x4
     1da:	41f5571b          	sraiw	a4,a0,0x1f
     1de:	9f99                	subw	a5,a5,a4
     1e0:	0017971b          	slliw	a4,a5,0x1
     1e4:	9f3d                	addw	a4,a4,a5
     1e6:	0037171b          	slliw	a4,a4,0x3
     1ea:	40f707bb          	subw	a5,a4,a5
     1ee:	9d1d                	subw	a0,a0,a5
     1f0:	faab6ae3          	bltu	s6,a0,1a4 <go+0xf6>
     1f4:	02051793          	slli	a5,a0,0x20
     1f8:	01e7d513          	srli	a0,a5,0x1e
     1fc:	954a                	add	a0,a0,s2
     1fe:	411c                	lw	a5,0(a0)
     200:	97ca                	add	a5,a5,s2
     202:	8782                	jr	a5
      close(open("grindir/../grindir/../b", O_CREATE|O_RDWR));
     204:	20200593          	li	a1,514
     208:	00001517          	auipc	a0,0x1
     20c:	28050513          	addi	a0,a0,640 # 1488 <malloc+0x15e>
     210:	00001097          	auipc	ra,0x1
     214:	d30080e7          	jalr	-720(ra) # f40 <open>
     218:	00001097          	auipc	ra,0x1
     21c:	d10080e7          	jalr	-752(ra) # f28 <close>
     220:	b751                	j	1a4 <go+0xf6>
      unlink("grindir/../a");
     222:	00001517          	auipc	a0,0x1
     226:	25650513          	addi	a0,a0,598 # 1478 <malloc+0x14e>
     22a:	00001097          	auipc	ra,0x1
     22e:	d26080e7          	jalr	-730(ra) # f50 <unlink>
     232:	bf8d                	j	1a4 <go+0xf6>
      if(chdir("grindir") != 0){
     234:	00001517          	auipc	a0,0x1
     238:	1fc50513          	addi	a0,a0,508 # 1430 <malloc+0x106>
     23c:	00001097          	auipc	ra,0x1
     240:	d34080e7          	jalr	-716(ra) # f70 <chdir>
     244:	e115                	bnez	a0,268 <go+0x1ba>
      unlink("../b");
     246:	00001517          	auipc	a0,0x1
     24a:	25a50513          	addi	a0,a0,602 # 14a0 <malloc+0x176>
     24e:	00001097          	auipc	ra,0x1
     252:	d02080e7          	jalr	-766(ra) # f50 <unlink>
      chdir("/");
     256:	00001517          	auipc	a0,0x1
     25a:	20a50513          	addi	a0,a0,522 # 1460 <malloc+0x136>
     25e:	00001097          	auipc	ra,0x1
     262:	d12080e7          	jalr	-750(ra) # f70 <chdir>
     266:	bf3d                	j	1a4 <go+0xf6>
        printf("grind: chdir grindir failed\n");
     268:	00001517          	auipc	a0,0x1
     26c:	1d050513          	addi	a0,a0,464 # 1438 <malloc+0x10e>
     270:	00001097          	auipc	ra,0x1
     274:	ffe080e7          	jalr	-2(ra) # 126e <printf>
        exit(1);
     278:	4505                	li	a0,1
     27a:	00001097          	auipc	ra,0x1
     27e:	c86080e7          	jalr	-890(ra) # f00 <exit>
      close(fd);
     282:	8566                	mv	a0,s9
     284:	00001097          	auipc	ra,0x1
     288:	ca4080e7          	jalr	-860(ra) # f28 <close>
      fd = open("/grindir/../a", O_CREATE|O_RDWR);
     28c:	20200593          	li	a1,514
     290:	00001517          	auipc	a0,0x1
     294:	21850513          	addi	a0,a0,536 # 14a8 <malloc+0x17e>
     298:	00001097          	auipc	ra,0x1
     29c:	ca8080e7          	jalr	-856(ra) # f40 <open>
     2a0:	8caa                	mv	s9,a0
     2a2:	b709                	j	1a4 <go+0xf6>
      close(fd);
     2a4:	8566                	mv	a0,s9
     2a6:	00001097          	auipc	ra,0x1
     2aa:	c82080e7          	jalr	-894(ra) # f28 <close>
      fd = open("/./grindir/./../b", O_CREATE|O_RDWR);
     2ae:	20200593          	li	a1,514
     2b2:	00001517          	auipc	a0,0x1
     2b6:	20650513          	addi	a0,a0,518 # 14b8 <malloc+0x18e>
     2ba:	00001097          	auipc	ra,0x1
     2be:	c86080e7          	jalr	-890(ra) # f40 <open>
     2c2:	8caa                	mv	s9,a0
     2c4:	b5c5                	j	1a4 <go+0xf6>
      write(fd, buf, sizeof(buf));
     2c6:	3e700613          	li	a2,999
     2ca:	00002597          	auipc	a1,0x2
     2ce:	d5658593          	addi	a1,a1,-682 # 2020 <buf.0>
     2d2:	8566                	mv	a0,s9
     2d4:	00001097          	auipc	ra,0x1
     2d8:	c4c080e7          	jalr	-948(ra) # f20 <write>
     2dc:	b5e1                	j	1a4 <go+0xf6>
      read(fd, buf, sizeof(buf));
     2de:	3e700613          	li	a2,999
     2e2:	00002597          	auipc	a1,0x2
     2e6:	d3e58593          	addi	a1,a1,-706 # 2020 <buf.0>
     2ea:	8566                	mv	a0,s9
     2ec:	00001097          	auipc	ra,0x1
     2f0:	c2c080e7          	jalr	-980(ra) # f18 <read>
     2f4:	bd45                	j	1a4 <go+0xf6>
      mkdir("grindir/../a");
     2f6:	00001517          	auipc	a0,0x1
     2fa:	18250513          	addi	a0,a0,386 # 1478 <malloc+0x14e>
     2fe:	00001097          	auipc	ra,0x1
     302:	c6a080e7          	jalr	-918(ra) # f68 <mkdir>
      close(open("a/../a/./a", O_CREATE|O_RDWR));
     306:	20200593          	li	a1,514
     30a:	00001517          	auipc	a0,0x1
     30e:	1c650513          	addi	a0,a0,454 # 14d0 <malloc+0x1a6>
     312:	00001097          	auipc	ra,0x1
     316:	c2e080e7          	jalr	-978(ra) # f40 <open>
     31a:	00001097          	auipc	ra,0x1
     31e:	c0e080e7          	jalr	-1010(ra) # f28 <close>
      unlink("a/a");
     322:	00001517          	auipc	a0,0x1
     326:	1be50513          	addi	a0,a0,446 # 14e0 <malloc+0x1b6>
     32a:	00001097          	auipc	ra,0x1
     32e:	c26080e7          	jalr	-986(ra) # f50 <unlink>
     332:	bd8d                	j	1a4 <go+0xf6>
      mkdir("/../b");
     334:	00001517          	auipc	a0,0x1
     338:	1b450513          	addi	a0,a0,436 # 14e8 <malloc+0x1be>
     33c:	00001097          	auipc	ra,0x1
     340:	c2c080e7          	jalr	-980(ra) # f68 <mkdir>
      close(open("grindir/../b/b", O_CREATE|O_RDWR));
     344:	20200593          	li	a1,514
     348:	00001517          	auipc	a0,0x1
     34c:	1a850513          	addi	a0,a0,424 # 14f0 <malloc+0x1c6>
     350:	00001097          	auipc	ra,0x1
     354:	bf0080e7          	jalr	-1040(ra) # f40 <open>
     358:	00001097          	auipc	ra,0x1
     35c:	bd0080e7          	jalr	-1072(ra) # f28 <close>
      unlink("b/b");
     360:	00001517          	auipc	a0,0x1
     364:	1a050513          	addi	a0,a0,416 # 1500 <malloc+0x1d6>
     368:	00001097          	auipc	ra,0x1
     36c:	be8080e7          	jalr	-1048(ra) # f50 <unlink>
     370:	bd15                	j	1a4 <go+0xf6>
      unlink("b");
     372:	00001517          	auipc	a0,0x1
     376:	19650513          	addi	a0,a0,406 # 1508 <malloc+0x1de>
     37a:	00001097          	auipc	ra,0x1
     37e:	bd6080e7          	jalr	-1066(ra) # f50 <unlink>
      link("../grindir/./../a", "../b");
     382:	00001597          	auipc	a1,0x1
     386:	11e58593          	addi	a1,a1,286 # 14a0 <malloc+0x176>
     38a:	00001517          	auipc	a0,0x1
     38e:	18650513          	addi	a0,a0,390 # 1510 <malloc+0x1e6>
     392:	00001097          	auipc	ra,0x1
     396:	bce080e7          	jalr	-1074(ra) # f60 <link>
     39a:	b529                	j	1a4 <go+0xf6>
      unlink("../grindir/../a");
     39c:	00001517          	auipc	a0,0x1
     3a0:	18c50513          	addi	a0,a0,396 # 1528 <malloc+0x1fe>
     3a4:	00001097          	auipc	ra,0x1
     3a8:	bac080e7          	jalr	-1108(ra) # f50 <unlink>
      link(".././b", "/grindir/../a");
     3ac:	00001597          	auipc	a1,0x1
     3b0:	0fc58593          	addi	a1,a1,252 # 14a8 <malloc+0x17e>
     3b4:	00001517          	auipc	a0,0x1
     3b8:	18450513          	addi	a0,a0,388 # 1538 <malloc+0x20e>
     3bc:	00001097          	auipc	ra,0x1
     3c0:	ba4080e7          	jalr	-1116(ra) # f60 <link>
     3c4:	b3c5                	j	1a4 <go+0xf6>
      int pid = fork();
     3c6:	00001097          	auipc	ra,0x1
     3ca:	b32080e7          	jalr	-1230(ra) # ef8 <fork>
      if(pid == 0){
     3ce:	c909                	beqz	a0,3e0 <go+0x332>
      } else if(pid < 0){
     3d0:	00054c63          	bltz	a0,3e8 <go+0x33a>
      wait(0);
     3d4:	4501                	li	a0,0
     3d6:	00001097          	auipc	ra,0x1
     3da:	b32080e7          	jalr	-1230(ra) # f08 <wait>
     3de:	b3d9                	j	1a4 <go+0xf6>
        exit(0);
     3e0:	00001097          	auipc	ra,0x1
     3e4:	b20080e7          	jalr	-1248(ra) # f00 <exit>
        printf("grind: fork failed\n");
     3e8:	00001517          	auipc	a0,0x1
     3ec:	15850513          	addi	a0,a0,344 # 1540 <malloc+0x216>
     3f0:	00001097          	auipc	ra,0x1
     3f4:	e7e080e7          	jalr	-386(ra) # 126e <printf>
        exit(1);
     3f8:	4505                	li	a0,1
     3fa:	00001097          	auipc	ra,0x1
     3fe:	b06080e7          	jalr	-1274(ra) # f00 <exit>
      int pid = fork();
     402:	00001097          	auipc	ra,0x1
     406:	af6080e7          	jalr	-1290(ra) # ef8 <fork>
      if(pid == 0){
     40a:	c909                	beqz	a0,41c <go+0x36e>
      } else if(pid < 0){
     40c:	02054563          	bltz	a0,436 <go+0x388>
      wait(0);
     410:	4501                	li	a0,0
     412:	00001097          	auipc	ra,0x1
     416:	af6080e7          	jalr	-1290(ra) # f08 <wait>
     41a:	b369                	j	1a4 <go+0xf6>
        fork();
     41c:	00001097          	auipc	ra,0x1
     420:	adc080e7          	jalr	-1316(ra) # ef8 <fork>
        fork();
     424:	00001097          	auipc	ra,0x1
     428:	ad4080e7          	jalr	-1324(ra) # ef8 <fork>
        exit(0);
     42c:	4501                	li	a0,0
     42e:	00001097          	auipc	ra,0x1
     432:	ad2080e7          	jalr	-1326(ra) # f00 <exit>
        printf("grind: fork failed\n");
     436:	00001517          	auipc	a0,0x1
     43a:	10a50513          	addi	a0,a0,266 # 1540 <malloc+0x216>
     43e:	00001097          	auipc	ra,0x1
     442:	e30080e7          	jalr	-464(ra) # 126e <printf>
        exit(1);
     446:	4505                	li	a0,1
     448:	00001097          	auipc	ra,0x1
     44c:	ab8080e7          	jalr	-1352(ra) # f00 <exit>
      sbrk(6011);
     450:	6505                	lui	a0,0x1
     452:	77b50513          	addi	a0,a0,1915 # 177b <malloc+0x451>
     456:	00001097          	auipc	ra,0x1
     45a:	b32080e7          	jalr	-1230(ra) # f88 <sbrk>
     45e:	b399                	j	1a4 <go+0xf6>
      if(sbrk(0) > break0)
     460:	4501                	li	a0,0
     462:	00001097          	auipc	ra,0x1
     466:	b26080e7          	jalr	-1242(ra) # f88 <sbrk>
     46a:	f5843783          	ld	a5,-168(s0)
     46e:	d2a7fbe3          	bgeu	a5,a0,1a4 <go+0xf6>
        sbrk(-(sbrk(0) - break0));
     472:	4501                	li	a0,0
     474:	00001097          	auipc	ra,0x1
     478:	b14080e7          	jalr	-1260(ra) # f88 <sbrk>
     47c:	f5843783          	ld	a5,-168(s0)
     480:	40a7853b          	subw	a0,a5,a0
     484:	00001097          	auipc	ra,0x1
     488:	b04080e7          	jalr	-1276(ra) # f88 <sbrk>
     48c:	bb21                	j	1a4 <go+0xf6>
      int pid = fork();
     48e:	00001097          	auipc	ra,0x1
     492:	a6a080e7          	jalr	-1430(ra) # ef8 <fork>
     496:	8d2a                	mv	s10,a0
      if(pid == 0){
     498:	c51d                	beqz	a0,4c6 <go+0x418>
      } else if(pid < 0){
     49a:	04054963          	bltz	a0,4ec <go+0x43e>
      if(chdir("../grindir/..") != 0){
     49e:	00001517          	auipc	a0,0x1
     4a2:	0c250513          	addi	a0,a0,194 # 1560 <malloc+0x236>
     4a6:	00001097          	auipc	ra,0x1
     4aa:	aca080e7          	jalr	-1334(ra) # f70 <chdir>
     4ae:	ed21                	bnez	a0,506 <go+0x458>
      kill(pid);
     4b0:	856a                	mv	a0,s10
     4b2:	00001097          	auipc	ra,0x1
     4b6:	a7e080e7          	jalr	-1410(ra) # f30 <kill>
      wait(0);
     4ba:	4501                	li	a0,0
     4bc:	00001097          	auipc	ra,0x1
     4c0:	a4c080e7          	jalr	-1460(ra) # f08 <wait>
     4c4:	b1c5                	j	1a4 <go+0xf6>
        close(open("a", O_CREATE|O_RDWR));
     4c6:	20200593          	li	a1,514
     4ca:	00001517          	auipc	a0,0x1
     4ce:	08e50513          	addi	a0,a0,142 # 1558 <malloc+0x22e>
     4d2:	00001097          	auipc	ra,0x1
     4d6:	a6e080e7          	jalr	-1426(ra) # f40 <open>
     4da:	00001097          	auipc	ra,0x1
     4de:	a4e080e7          	jalr	-1458(ra) # f28 <close>
        exit(0);
     4e2:	4501                	li	a0,0
     4e4:	00001097          	auipc	ra,0x1
     4e8:	a1c080e7          	jalr	-1508(ra) # f00 <exit>
        printf("grind: fork failed\n");
     4ec:	00001517          	auipc	a0,0x1
     4f0:	05450513          	addi	a0,a0,84 # 1540 <malloc+0x216>
     4f4:	00001097          	auipc	ra,0x1
     4f8:	d7a080e7          	jalr	-646(ra) # 126e <printf>
        exit(1);
     4fc:	4505                	li	a0,1
     4fe:	00001097          	auipc	ra,0x1
     502:	a02080e7          	jalr	-1534(ra) # f00 <exit>
        printf("grind: chdir failed\n");
     506:	00001517          	auipc	a0,0x1
     50a:	06a50513          	addi	a0,a0,106 # 1570 <malloc+0x246>
     50e:	00001097          	auipc	ra,0x1
     512:	d60080e7          	jalr	-672(ra) # 126e <printf>
        exit(1);
     516:	4505                	li	a0,1
     518:	00001097          	auipc	ra,0x1
     51c:	9e8080e7          	jalr	-1560(ra) # f00 <exit>
      int pid = fork();
     520:	00001097          	auipc	ra,0x1
     524:	9d8080e7          	jalr	-1576(ra) # ef8 <fork>
      if(pid == 0){
     528:	c909                	beqz	a0,53a <go+0x48c>
      } else if(pid < 0){
     52a:	02054563          	bltz	a0,554 <go+0x4a6>
      wait(0);
     52e:	4501                	li	a0,0
     530:	00001097          	auipc	ra,0x1
     534:	9d8080e7          	jalr	-1576(ra) # f08 <wait>
     538:	b1b5                	j	1a4 <go+0xf6>
        kill(getpid());
     53a:	00001097          	auipc	ra,0x1
     53e:	a46080e7          	jalr	-1466(ra) # f80 <getpid>
     542:	00001097          	auipc	ra,0x1
     546:	9ee080e7          	jalr	-1554(ra) # f30 <kill>
        exit(0);
     54a:	4501                	li	a0,0
     54c:	00001097          	auipc	ra,0x1
     550:	9b4080e7          	jalr	-1612(ra) # f00 <exit>
        printf("grind: fork failed\n");
     554:	00001517          	auipc	a0,0x1
     558:	fec50513          	addi	a0,a0,-20 # 1540 <malloc+0x216>
     55c:	00001097          	auipc	ra,0x1
     560:	d12080e7          	jalr	-750(ra) # 126e <printf>
        exit(1);
     564:	4505                	li	a0,1
     566:	00001097          	auipc	ra,0x1
     56a:	99a080e7          	jalr	-1638(ra) # f00 <exit>
      if(pipe(fds) < 0){
     56e:	f7840513          	addi	a0,s0,-136
     572:	00001097          	auipc	ra,0x1
     576:	99e080e7          	jalr	-1634(ra) # f10 <pipe>
     57a:	02054b63          	bltz	a0,5b0 <go+0x502>
      int pid = fork();
     57e:	00001097          	auipc	ra,0x1
     582:	97a080e7          	jalr	-1670(ra) # ef8 <fork>
      if(pid == 0){
     586:	c131                	beqz	a0,5ca <go+0x51c>
      } else if(pid < 0){
     588:	0a054a63          	bltz	a0,63c <go+0x58e>
      close(fds[0]);
     58c:	f7842503          	lw	a0,-136(s0)
     590:	00001097          	auipc	ra,0x1
     594:	998080e7          	jalr	-1640(ra) # f28 <close>
      close(fds[1]);
     598:	f7c42503          	lw	a0,-132(s0)
     59c:	00001097          	auipc	ra,0x1
     5a0:	98c080e7          	jalr	-1652(ra) # f28 <close>
      wait(0);
     5a4:	4501                	li	a0,0
     5a6:	00001097          	auipc	ra,0x1
     5aa:	962080e7          	jalr	-1694(ra) # f08 <wait>
     5ae:	bedd                	j	1a4 <go+0xf6>
        printf("grind: pipe failed\n");
     5b0:	00001517          	auipc	a0,0x1
     5b4:	fd850513          	addi	a0,a0,-40 # 1588 <malloc+0x25e>
     5b8:	00001097          	auipc	ra,0x1
     5bc:	cb6080e7          	jalr	-842(ra) # 126e <printf>
        exit(1);
     5c0:	4505                	li	a0,1
     5c2:	00001097          	auipc	ra,0x1
     5c6:	93e080e7          	jalr	-1730(ra) # f00 <exit>
        fork();
     5ca:	00001097          	auipc	ra,0x1
     5ce:	92e080e7          	jalr	-1746(ra) # ef8 <fork>
        fork();
     5d2:	00001097          	auipc	ra,0x1
     5d6:	926080e7          	jalr	-1754(ra) # ef8 <fork>
        if(write(fds[1], "x", 1) != 1)
     5da:	4605                	li	a2,1
     5dc:	00001597          	auipc	a1,0x1
     5e0:	fc458593          	addi	a1,a1,-60 # 15a0 <malloc+0x276>
     5e4:	f7c42503          	lw	a0,-132(s0)
     5e8:	00001097          	auipc	ra,0x1
     5ec:	938080e7          	jalr	-1736(ra) # f20 <write>
     5f0:	4785                	li	a5,1
     5f2:	02f51363          	bne	a0,a5,618 <go+0x56a>
        if(read(fds[0], &c, 1) != 1)
     5f6:	4605                	li	a2,1
     5f8:	f7040593          	addi	a1,s0,-144
     5fc:	f7842503          	lw	a0,-136(s0)
     600:	00001097          	auipc	ra,0x1
     604:	918080e7          	jalr	-1768(ra) # f18 <read>
     608:	4785                	li	a5,1
     60a:	02f51063          	bne	a0,a5,62a <go+0x57c>
        exit(0);
     60e:	4501                	li	a0,0
     610:	00001097          	auipc	ra,0x1
     614:	8f0080e7          	jalr	-1808(ra) # f00 <exit>
          printf("grind: pipe write failed\n");
     618:	00001517          	auipc	a0,0x1
     61c:	f9050513          	addi	a0,a0,-112 # 15a8 <malloc+0x27e>
     620:	00001097          	auipc	ra,0x1
     624:	c4e080e7          	jalr	-946(ra) # 126e <printf>
     628:	b7f9                	j	5f6 <go+0x548>
          printf("grind: pipe read failed\n");
     62a:	00001517          	auipc	a0,0x1
     62e:	f9e50513          	addi	a0,a0,-98 # 15c8 <malloc+0x29e>
     632:	00001097          	auipc	ra,0x1
     636:	c3c080e7          	jalr	-964(ra) # 126e <printf>
     63a:	bfd1                	j	60e <go+0x560>
        printf("grind: fork failed\n");
     63c:	00001517          	auipc	a0,0x1
     640:	f0450513          	addi	a0,a0,-252 # 1540 <malloc+0x216>
     644:	00001097          	auipc	ra,0x1
     648:	c2a080e7          	jalr	-982(ra) # 126e <printf>
        exit(1);
     64c:	4505                	li	a0,1
     64e:	00001097          	auipc	ra,0x1
     652:	8b2080e7          	jalr	-1870(ra) # f00 <exit>
      int pid = fork();
     656:	00001097          	auipc	ra,0x1
     65a:	8a2080e7          	jalr	-1886(ra) # ef8 <fork>
      if(pid == 0){
     65e:	c909                	beqz	a0,670 <go+0x5c2>
      } else if(pid < 0){
     660:	06054f63          	bltz	a0,6de <go+0x630>
      wait(0);
     664:	4501                	li	a0,0
     666:	00001097          	auipc	ra,0x1
     66a:	8a2080e7          	jalr	-1886(ra) # f08 <wait>
     66e:	be1d                	j	1a4 <go+0xf6>
        unlink("a");
     670:	00001517          	auipc	a0,0x1
     674:	ee850513          	addi	a0,a0,-280 # 1558 <malloc+0x22e>
     678:	00001097          	auipc	ra,0x1
     67c:	8d8080e7          	jalr	-1832(ra) # f50 <unlink>
        mkdir("a");
     680:	00001517          	auipc	a0,0x1
     684:	ed850513          	addi	a0,a0,-296 # 1558 <malloc+0x22e>
     688:	00001097          	auipc	ra,0x1
     68c:	8e0080e7          	jalr	-1824(ra) # f68 <mkdir>
        chdir("a");
     690:	00001517          	auipc	a0,0x1
     694:	ec850513          	addi	a0,a0,-312 # 1558 <malloc+0x22e>
     698:	00001097          	auipc	ra,0x1
     69c:	8d8080e7          	jalr	-1832(ra) # f70 <chdir>
        unlink("../a");
     6a0:	00001517          	auipc	a0,0x1
     6a4:	f4850513          	addi	a0,a0,-184 # 15e8 <malloc+0x2be>
     6a8:	00001097          	auipc	ra,0x1
     6ac:	8a8080e7          	jalr	-1880(ra) # f50 <unlink>
        fd = open("x", O_CREATE|O_RDWR);
     6b0:	20200593          	li	a1,514
     6b4:	00001517          	auipc	a0,0x1
     6b8:	eec50513          	addi	a0,a0,-276 # 15a0 <malloc+0x276>
     6bc:	00001097          	auipc	ra,0x1
     6c0:	884080e7          	jalr	-1916(ra) # f40 <open>
        unlink("x");
     6c4:	00001517          	auipc	a0,0x1
     6c8:	edc50513          	addi	a0,a0,-292 # 15a0 <malloc+0x276>
     6cc:	00001097          	auipc	ra,0x1
     6d0:	884080e7          	jalr	-1916(ra) # f50 <unlink>
        exit(0);
     6d4:	4501                	li	a0,0
     6d6:	00001097          	auipc	ra,0x1
     6da:	82a080e7          	jalr	-2006(ra) # f00 <exit>
        printf("grind: fork failed\n");
     6de:	00001517          	auipc	a0,0x1
     6e2:	e6250513          	addi	a0,a0,-414 # 1540 <malloc+0x216>
     6e6:	00001097          	auipc	ra,0x1
     6ea:	b88080e7          	jalr	-1144(ra) # 126e <printf>
        exit(1);
     6ee:	4505                	li	a0,1
     6f0:	00001097          	auipc	ra,0x1
     6f4:	810080e7          	jalr	-2032(ra) # f00 <exit>
      unlink("c");
     6f8:	00001517          	auipc	a0,0x1
     6fc:	ef850513          	addi	a0,a0,-264 # 15f0 <malloc+0x2c6>
     700:	00001097          	auipc	ra,0x1
     704:	850080e7          	jalr	-1968(ra) # f50 <unlink>
      int fd1 = open("c", O_CREATE|O_RDWR);
     708:	20200593          	li	a1,514
     70c:	00001517          	auipc	a0,0x1
     710:	ee450513          	addi	a0,a0,-284 # 15f0 <malloc+0x2c6>
     714:	00001097          	auipc	ra,0x1
     718:	82c080e7          	jalr	-2004(ra) # f40 <open>
     71c:	8d2a                	mv	s10,a0
      if(fd1 < 0){
     71e:	04054d63          	bltz	a0,778 <go+0x6ca>
      if(write(fd1, "x", 1) != 1){
     722:	8652                	mv	a2,s4
     724:	00001597          	auipc	a1,0x1
     728:	e7c58593          	addi	a1,a1,-388 # 15a0 <malloc+0x276>
     72c:	00000097          	auipc	ra,0x0
     730:	7f4080e7          	jalr	2036(ra) # f20 <write>
     734:	05451f63          	bne	a0,s4,792 <go+0x6e4>
      if(fstat(fd1, &st) != 0){
     738:	f7840593          	addi	a1,s0,-136
     73c:	856a                	mv	a0,s10
     73e:	00001097          	auipc	ra,0x1
     742:	81a080e7          	jalr	-2022(ra) # f58 <fstat>
     746:	e13d                	bnez	a0,7ac <go+0x6fe>
      if(st.size != 1){
     748:	f8843583          	ld	a1,-120(s0)
     74c:	07459d63          	bne	a1,s4,7c6 <go+0x718>
      if(st.ino > 200){
     750:	f7c42583          	lw	a1,-132(s0)
     754:	0c800793          	li	a5,200
     758:	08b7e563          	bltu	a5,a1,7e2 <go+0x734>
      close(fd1);
     75c:	856a                	mv	a0,s10
     75e:	00000097          	auipc	ra,0x0
     762:	7ca080e7          	jalr	1994(ra) # f28 <close>
      unlink("c");
     766:	00001517          	auipc	a0,0x1
     76a:	e8a50513          	addi	a0,a0,-374 # 15f0 <malloc+0x2c6>
     76e:	00000097          	auipc	ra,0x0
     772:	7e2080e7          	jalr	2018(ra) # f50 <unlink>
     776:	b43d                	j	1a4 <go+0xf6>
        printf("grind: create c failed\n");
     778:	00001517          	auipc	a0,0x1
     77c:	e8050513          	addi	a0,a0,-384 # 15f8 <malloc+0x2ce>
     780:	00001097          	auipc	ra,0x1
     784:	aee080e7          	jalr	-1298(ra) # 126e <printf>
        exit(1);
     788:	4505                	li	a0,1
     78a:	00000097          	auipc	ra,0x0
     78e:	776080e7          	jalr	1910(ra) # f00 <exit>
        printf("grind: write c failed\n");
     792:	00001517          	auipc	a0,0x1
     796:	e7e50513          	addi	a0,a0,-386 # 1610 <malloc+0x2e6>
     79a:	00001097          	auipc	ra,0x1
     79e:	ad4080e7          	jalr	-1324(ra) # 126e <printf>
        exit(1);
     7a2:	4505                	li	a0,1
     7a4:	00000097          	auipc	ra,0x0
     7a8:	75c080e7          	jalr	1884(ra) # f00 <exit>
        printf("grind: fstat failed\n");
     7ac:	00001517          	auipc	a0,0x1
     7b0:	e7c50513          	addi	a0,a0,-388 # 1628 <malloc+0x2fe>
     7b4:	00001097          	auipc	ra,0x1
     7b8:	aba080e7          	jalr	-1350(ra) # 126e <printf>
        exit(1);
     7bc:	4505                	li	a0,1
     7be:	00000097          	auipc	ra,0x0
     7c2:	742080e7          	jalr	1858(ra) # f00 <exit>
        printf("grind: fstat reports wrong size %d\n", (int)st.size);
     7c6:	2581                	sext.w	a1,a1
     7c8:	00001517          	auipc	a0,0x1
     7cc:	e7850513          	addi	a0,a0,-392 # 1640 <malloc+0x316>
     7d0:	00001097          	auipc	ra,0x1
     7d4:	a9e080e7          	jalr	-1378(ra) # 126e <printf>
        exit(1);
     7d8:	4505                	li	a0,1
     7da:	00000097          	auipc	ra,0x0
     7de:	726080e7          	jalr	1830(ra) # f00 <exit>
        printf("grind: fstat reports crazy i-number %d\n", st.ino);
     7e2:	00001517          	auipc	a0,0x1
     7e6:	e8650513          	addi	a0,a0,-378 # 1668 <malloc+0x33e>
     7ea:	00001097          	auipc	ra,0x1
     7ee:	a84080e7          	jalr	-1404(ra) # 126e <printf>
        exit(1);
     7f2:	4505                	li	a0,1
     7f4:	00000097          	auipc	ra,0x0
     7f8:	70c080e7          	jalr	1804(ra) # f00 <exit>
      if(pipe(aa) < 0){
     7fc:	856e                	mv	a0,s11
     7fe:	00000097          	auipc	ra,0x0
     802:	712080e7          	jalr	1810(ra) # f10 <pipe>
     806:	10054063          	bltz	a0,906 <go+0x858>
        fprintf(2, "grind: pipe failed\n");
        exit(1);
      }
      if(pipe(bb) < 0){
     80a:	f7040513          	addi	a0,s0,-144
     80e:	00000097          	auipc	ra,0x0
     812:	702080e7          	jalr	1794(ra) # f10 <pipe>
     816:	10054663          	bltz	a0,922 <go+0x874>
        fprintf(2, "grind: pipe failed\n");
        exit(1);
      }
      int pid1 = fork();
     81a:	00000097          	auipc	ra,0x0
     81e:	6de080e7          	jalr	1758(ra) # ef8 <fork>
      if(pid1 == 0){
     822:	10050e63          	beqz	a0,93e <go+0x890>
        close(aa[1]);
        char *args[3] = { "echo", "hi", 0 };
        exec("grindir/../echo", args);
        fprintf(2, "grind: echo: not found\n");
        exit(2);
      } else if(pid1 < 0){
     826:	1c054663          	bltz	a0,9f2 <go+0x944>
        fprintf(2, "grind: fork failed\n");
        exit(3);
      }
      int pid2 = fork();
     82a:	00000097          	auipc	ra,0x0
     82e:	6ce080e7          	jalr	1742(ra) # ef8 <fork>
      if(pid2 == 0){
     832:	1c050e63          	beqz	a0,a0e <go+0x960>
        close(bb[1]);
        char *args[2] = { "cat", 0 };
        exec("/cat", args);
        fprintf(2, "grind: cat: not found\n");
        exit(6);
      } else if(pid2 < 0){
     836:	2a054a63          	bltz	a0,aea <go+0xa3c>
        fprintf(2, "grind: fork failed\n");
        exit(7);
      }
      close(aa[0]);
     83a:	f6842503          	lw	a0,-152(s0)
     83e:	00000097          	auipc	ra,0x0
     842:	6ea080e7          	jalr	1770(ra) # f28 <close>
      close(aa[1]);
     846:	f6c42503          	lw	a0,-148(s0)
     84a:	00000097          	auipc	ra,0x0
     84e:	6de080e7          	jalr	1758(ra) # f28 <close>
      close(bb[1]);
     852:	f7442503          	lw	a0,-140(s0)
     856:	00000097          	auipc	ra,0x0
     85a:	6d2080e7          	jalr	1746(ra) # f28 <close>
      char buf[4] = { 0, 0, 0, 0 };
     85e:	f6042023          	sw	zero,-160(s0)
      read(bb[0], buf+0, 1);
     862:	8652                	mv	a2,s4
     864:	f6040593          	addi	a1,s0,-160
     868:	f7042503          	lw	a0,-144(s0)
     86c:	00000097          	auipc	ra,0x0
     870:	6ac080e7          	jalr	1708(ra) # f18 <read>
      read(bb[0], buf+1, 1);
     874:	8652                	mv	a2,s4
     876:	f6140593          	addi	a1,s0,-159
     87a:	f7042503          	lw	a0,-144(s0)
     87e:	00000097          	auipc	ra,0x0
     882:	69a080e7          	jalr	1690(ra) # f18 <read>
      read(bb[0], buf+2, 1);
     886:	8652                	mv	a2,s4
     888:	f6240593          	addi	a1,s0,-158
     88c:	f7042503          	lw	a0,-144(s0)
     890:	00000097          	auipc	ra,0x0
     894:	688080e7          	jalr	1672(ra) # f18 <read>
      close(bb[0]);
     898:	f7042503          	lw	a0,-144(s0)
     89c:	00000097          	auipc	ra,0x0
     8a0:	68c080e7          	jalr	1676(ra) # f28 <close>
      int st1, st2;
      wait(&st1);
     8a4:	f6440513          	addi	a0,s0,-156
     8a8:	00000097          	auipc	ra,0x0
     8ac:	660080e7          	jalr	1632(ra) # f08 <wait>
      wait(&st2);
     8b0:	f7840513          	addi	a0,s0,-136
     8b4:	00000097          	auipc	ra,0x0
     8b8:	654080e7          	jalr	1620(ra) # f08 <wait>
      if(st1 != 0 || st2 != 0 || strcmp(buf, "hi\n") != 0){
     8bc:	f6442783          	lw	a5,-156(s0)
     8c0:	f7842703          	lw	a4,-136(s0)
     8c4:	8fd9                	or	a5,a5,a4
     8c6:	ef89                	bnez	a5,8e0 <go+0x832>
     8c8:	00001597          	auipc	a1,0x1
     8cc:	e4058593          	addi	a1,a1,-448 # 1708 <malloc+0x3de>
     8d0:	f6040513          	addi	a0,s0,-160
     8d4:	00000097          	auipc	ra,0x0
     8d8:	3be080e7          	jalr	958(ra) # c92 <strcmp>
     8dc:	8c0504e3          	beqz	a0,1a4 <go+0xf6>
        printf("grind: exec pipeline failed %d %d \"%s\"\n", st1, st2, buf);
     8e0:	f6040693          	addi	a3,s0,-160
     8e4:	f7842603          	lw	a2,-136(s0)
     8e8:	f6442583          	lw	a1,-156(s0)
     8ec:	00001517          	auipc	a0,0x1
     8f0:	e2450513          	addi	a0,a0,-476 # 1710 <malloc+0x3e6>
     8f4:	00001097          	auipc	ra,0x1
     8f8:	97a080e7          	jalr	-1670(ra) # 126e <printf>
        exit(1);
     8fc:	4505                	li	a0,1
     8fe:	00000097          	auipc	ra,0x0
     902:	602080e7          	jalr	1538(ra) # f00 <exit>
        fprintf(2, "grind: pipe failed\n");
     906:	00001597          	auipc	a1,0x1
     90a:	c8258593          	addi	a1,a1,-894 # 1588 <malloc+0x25e>
     90e:	4509                	li	a0,2
     910:	00001097          	auipc	ra,0x1
     914:	930080e7          	jalr	-1744(ra) # 1240 <fprintf>
        exit(1);
     918:	4505                	li	a0,1
     91a:	00000097          	auipc	ra,0x0
     91e:	5e6080e7          	jalr	1510(ra) # f00 <exit>
        fprintf(2, "grind: pipe failed\n");
     922:	00001597          	auipc	a1,0x1
     926:	c6658593          	addi	a1,a1,-922 # 1588 <malloc+0x25e>
     92a:	4509                	li	a0,2
     92c:	00001097          	auipc	ra,0x1
     930:	914080e7          	jalr	-1772(ra) # 1240 <fprintf>
        exit(1);
     934:	4505                	li	a0,1
     936:	00000097          	auipc	ra,0x0
     93a:	5ca080e7          	jalr	1482(ra) # f00 <exit>
        close(bb[0]);
     93e:	f7042503          	lw	a0,-144(s0)
     942:	00000097          	auipc	ra,0x0
     946:	5e6080e7          	jalr	1510(ra) # f28 <close>
        close(bb[1]);
     94a:	f7442503          	lw	a0,-140(s0)
     94e:	00000097          	auipc	ra,0x0
     952:	5da080e7          	jalr	1498(ra) # f28 <close>
        close(aa[0]);
     956:	f6842503          	lw	a0,-152(s0)
     95a:	00000097          	auipc	ra,0x0
     95e:	5ce080e7          	jalr	1486(ra) # f28 <close>
        close(1);
     962:	4505                	li	a0,1
     964:	00000097          	auipc	ra,0x0
     968:	5c4080e7          	jalr	1476(ra) # f28 <close>
        if(dup(aa[1]) != 1){
     96c:	f6c42503          	lw	a0,-148(s0)
     970:	00000097          	auipc	ra,0x0
     974:	608080e7          	jalr	1544(ra) # f78 <dup>
     978:	4785                	li	a5,1
     97a:	02f50063          	beq	a0,a5,99a <go+0x8ec>
          fprintf(2, "grind: dup failed\n");
     97e:	00001597          	auipc	a1,0x1
     982:	d1258593          	addi	a1,a1,-750 # 1690 <malloc+0x366>
     986:	4509                	li	a0,2
     988:	00001097          	auipc	ra,0x1
     98c:	8b8080e7          	jalr	-1864(ra) # 1240 <fprintf>
          exit(1);
     990:	4505                	li	a0,1
     992:	00000097          	auipc	ra,0x0
     996:	56e080e7          	jalr	1390(ra) # f00 <exit>
        close(aa[1]);
     99a:	f6c42503          	lw	a0,-148(s0)
     99e:	00000097          	auipc	ra,0x0
     9a2:	58a080e7          	jalr	1418(ra) # f28 <close>
        char *args[3] = { "echo", "hi", 0 };
     9a6:	00001797          	auipc	a5,0x1
     9aa:	d0278793          	addi	a5,a5,-766 # 16a8 <malloc+0x37e>
     9ae:	f6f43c23          	sd	a5,-136(s0)
     9b2:	00001797          	auipc	a5,0x1
     9b6:	cfe78793          	addi	a5,a5,-770 # 16b0 <malloc+0x386>
     9ba:	f8f43023          	sd	a5,-128(s0)
     9be:	f8043423          	sd	zero,-120(s0)
        exec("grindir/../echo", args);
     9c2:	f7840593          	addi	a1,s0,-136
     9c6:	00001517          	auipc	a0,0x1
     9ca:	cf250513          	addi	a0,a0,-782 # 16b8 <malloc+0x38e>
     9ce:	00000097          	auipc	ra,0x0
     9d2:	56a080e7          	jalr	1386(ra) # f38 <exec>
        fprintf(2, "grind: echo: not found\n");
     9d6:	00001597          	auipc	a1,0x1
     9da:	cf258593          	addi	a1,a1,-782 # 16c8 <malloc+0x39e>
     9de:	4509                	li	a0,2
     9e0:	00001097          	auipc	ra,0x1
     9e4:	860080e7          	jalr	-1952(ra) # 1240 <fprintf>
        exit(2);
     9e8:	4509                	li	a0,2
     9ea:	00000097          	auipc	ra,0x0
     9ee:	516080e7          	jalr	1302(ra) # f00 <exit>
        fprintf(2, "grind: fork failed\n");
     9f2:	00001597          	auipc	a1,0x1
     9f6:	b4e58593          	addi	a1,a1,-1202 # 1540 <malloc+0x216>
     9fa:	4509                	li	a0,2
     9fc:	00001097          	auipc	ra,0x1
     a00:	844080e7          	jalr	-1980(ra) # 1240 <fprintf>
        exit(3);
     a04:	450d                	li	a0,3
     a06:	00000097          	auipc	ra,0x0
     a0a:	4fa080e7          	jalr	1274(ra) # f00 <exit>
        close(aa[1]);
     a0e:	f6c42503          	lw	a0,-148(s0)
     a12:	00000097          	auipc	ra,0x0
     a16:	516080e7          	jalr	1302(ra) # f28 <close>
        close(bb[0]);
     a1a:	f7042503          	lw	a0,-144(s0)
     a1e:	00000097          	auipc	ra,0x0
     a22:	50a080e7          	jalr	1290(ra) # f28 <close>
        close(0);
     a26:	4501                	li	a0,0
     a28:	00000097          	auipc	ra,0x0
     a2c:	500080e7          	jalr	1280(ra) # f28 <close>
        if(dup(aa[0]) != 0){
     a30:	f6842503          	lw	a0,-152(s0)
     a34:	00000097          	auipc	ra,0x0
     a38:	544080e7          	jalr	1348(ra) # f78 <dup>
     a3c:	cd19                	beqz	a0,a5a <go+0x9ac>
          fprintf(2, "grind: dup failed\n");
     a3e:	00001597          	auipc	a1,0x1
     a42:	c5258593          	addi	a1,a1,-942 # 1690 <malloc+0x366>
     a46:	4509                	li	a0,2
     a48:	00000097          	auipc	ra,0x0
     a4c:	7f8080e7          	jalr	2040(ra) # 1240 <fprintf>
          exit(4);
     a50:	4511                	li	a0,4
     a52:	00000097          	auipc	ra,0x0
     a56:	4ae080e7          	jalr	1198(ra) # f00 <exit>
        close(aa[0]);
     a5a:	f6842503          	lw	a0,-152(s0)
     a5e:	00000097          	auipc	ra,0x0
     a62:	4ca080e7          	jalr	1226(ra) # f28 <close>
        close(1);
     a66:	4505                	li	a0,1
     a68:	00000097          	auipc	ra,0x0
     a6c:	4c0080e7          	jalr	1216(ra) # f28 <close>
        if(dup(bb[1]) != 1){
     a70:	f7442503          	lw	a0,-140(s0)
     a74:	00000097          	auipc	ra,0x0
     a78:	504080e7          	jalr	1284(ra) # f78 <dup>
     a7c:	4785                	li	a5,1
     a7e:	02f50063          	beq	a0,a5,a9e <go+0x9f0>
          fprintf(2, "grind: dup failed\n");
     a82:	00001597          	auipc	a1,0x1
     a86:	c0e58593          	addi	a1,a1,-1010 # 1690 <malloc+0x366>
     a8a:	4509                	li	a0,2
     a8c:	00000097          	auipc	ra,0x0
     a90:	7b4080e7          	jalr	1972(ra) # 1240 <fprintf>
          exit(5);
     a94:	4515                	li	a0,5
     a96:	00000097          	auipc	ra,0x0
     a9a:	46a080e7          	jalr	1130(ra) # f00 <exit>
        close(bb[1]);
     a9e:	f7442503          	lw	a0,-140(s0)
     aa2:	00000097          	auipc	ra,0x0
     aa6:	486080e7          	jalr	1158(ra) # f28 <close>
        char *args[2] = { "cat", 0 };
     aaa:	00001797          	auipc	a5,0x1
     aae:	c3678793          	addi	a5,a5,-970 # 16e0 <malloc+0x3b6>
     ab2:	f6f43c23          	sd	a5,-136(s0)
     ab6:	f8043023          	sd	zero,-128(s0)
        exec("/cat", args);
     aba:	f7840593          	addi	a1,s0,-136
     abe:	00001517          	auipc	a0,0x1
     ac2:	c2a50513          	addi	a0,a0,-982 # 16e8 <malloc+0x3be>
     ac6:	00000097          	auipc	ra,0x0
     aca:	472080e7          	jalr	1138(ra) # f38 <exec>
        fprintf(2, "grind: cat: not found\n");
     ace:	00001597          	auipc	a1,0x1
     ad2:	c2258593          	addi	a1,a1,-990 # 16f0 <malloc+0x3c6>
     ad6:	4509                	li	a0,2
     ad8:	00000097          	auipc	ra,0x0
     adc:	768080e7          	jalr	1896(ra) # 1240 <fprintf>
        exit(6);
     ae0:	4519                	li	a0,6
     ae2:	00000097          	auipc	ra,0x0
     ae6:	41e080e7          	jalr	1054(ra) # f00 <exit>
        fprintf(2, "grind: fork failed\n");
     aea:	00001597          	auipc	a1,0x1
     aee:	a5658593          	addi	a1,a1,-1450 # 1540 <malloc+0x216>
     af2:	4509                	li	a0,2
     af4:	00000097          	auipc	ra,0x0
     af8:	74c080e7          	jalr	1868(ra) # 1240 <fprintf>
        exit(7);
     afc:	451d                	li	a0,7
     afe:	00000097          	auipc	ra,0x0
     b02:	402080e7          	jalr	1026(ra) # f00 <exit>

0000000000000b06 <iter>:
  }
}

void
iter()
{
     b06:	7179                	addi	sp,sp,-48
     b08:	f406                	sd	ra,40(sp)
     b0a:	f022                	sd	s0,32(sp)
     b0c:	1800                	addi	s0,sp,48
  unlink("a");
     b0e:	00001517          	auipc	a0,0x1
     b12:	a4a50513          	addi	a0,a0,-1462 # 1558 <malloc+0x22e>
     b16:	00000097          	auipc	ra,0x0
     b1a:	43a080e7          	jalr	1082(ra) # f50 <unlink>
  unlink("b");
     b1e:	00001517          	auipc	a0,0x1
     b22:	9ea50513          	addi	a0,a0,-1558 # 1508 <malloc+0x1de>
     b26:	00000097          	auipc	ra,0x0
     b2a:	42a080e7          	jalr	1066(ra) # f50 <unlink>
  
  int pid1 = fork();
     b2e:	00000097          	auipc	ra,0x0
     b32:	3ca080e7          	jalr	970(ra) # ef8 <fork>
  if(pid1 < 0){
     b36:	02054363          	bltz	a0,b5c <iter+0x56>
     b3a:	ec26                	sd	s1,24(sp)
     b3c:	84aa                	mv	s1,a0
    printf("grind: fork failed\n");
    exit(1);
  }
  if(pid1 == 0){
     b3e:	ed15                	bnez	a0,b7a <iter+0x74>
     b40:	e84a                	sd	s2,16(sp)
    rand_next ^= 31;
     b42:	00001717          	auipc	a4,0x1
     b46:	4be70713          	addi	a4,a4,1214 # 2000 <rand_next>
     b4a:	631c                	ld	a5,0(a4)
     b4c:	01f7c793          	xori	a5,a5,31
     b50:	e31c                	sd	a5,0(a4)
    go(0);
     b52:	4501                	li	a0,0
     b54:	fffff097          	auipc	ra,0xfffff
     b58:	55a080e7          	jalr	1370(ra) # ae <go>
     b5c:	ec26                	sd	s1,24(sp)
     b5e:	e84a                	sd	s2,16(sp)
    printf("grind: fork failed\n");
     b60:	00001517          	auipc	a0,0x1
     b64:	9e050513          	addi	a0,a0,-1568 # 1540 <malloc+0x216>
     b68:	00000097          	auipc	ra,0x0
     b6c:	706080e7          	jalr	1798(ra) # 126e <printf>
    exit(1);
     b70:	4505                	li	a0,1
     b72:	00000097          	auipc	ra,0x0
     b76:	38e080e7          	jalr	910(ra) # f00 <exit>
     b7a:	e84a                	sd	s2,16(sp)
    exit(0);
  }

  int pid2 = fork();
     b7c:	00000097          	auipc	ra,0x0
     b80:	37c080e7          	jalr	892(ra) # ef8 <fork>
     b84:	892a                	mv	s2,a0
  if(pid2 < 0){
     b86:	02054263          	bltz	a0,baa <iter+0xa4>
    printf("grind: fork failed\n");
    exit(1);
  }
  if(pid2 == 0){
     b8a:	ed0d                	bnez	a0,bc4 <iter+0xbe>
    rand_next ^= 7177;
     b8c:	00001697          	auipc	a3,0x1
     b90:	47468693          	addi	a3,a3,1140 # 2000 <rand_next>
     b94:	629c                	ld	a5,0(a3)
     b96:	6709                	lui	a4,0x2
     b98:	c0970713          	addi	a4,a4,-1015 # 1c09 <digits+0x411>
     b9c:	8fb9                	xor	a5,a5,a4
     b9e:	e29c                	sd	a5,0(a3)
    go(1);
     ba0:	4505                	li	a0,1
     ba2:	fffff097          	auipc	ra,0xfffff
     ba6:	50c080e7          	jalr	1292(ra) # ae <go>
    printf("grind: fork failed\n");
     baa:	00001517          	auipc	a0,0x1
     bae:	99650513          	addi	a0,a0,-1642 # 1540 <malloc+0x216>
     bb2:	00000097          	auipc	ra,0x0
     bb6:	6bc080e7          	jalr	1724(ra) # 126e <printf>
    exit(1);
     bba:	4505                	li	a0,1
     bbc:	00000097          	auipc	ra,0x0
     bc0:	344080e7          	jalr	836(ra) # f00 <exit>
    exit(0);
  }

  int st1 = -1;
     bc4:	57fd                	li	a5,-1
     bc6:	fcf42e23          	sw	a5,-36(s0)
  wait(&st1);
     bca:	fdc40513          	addi	a0,s0,-36
     bce:	00000097          	auipc	ra,0x0
     bd2:	33a080e7          	jalr	826(ra) # f08 <wait>
  if(st1 != 0){
     bd6:	fdc42783          	lw	a5,-36(s0)
     bda:	ef99                	bnez	a5,bf8 <iter+0xf2>
    kill(pid1);
    kill(pid2);
  }
  int st2 = -1;
     bdc:	57fd                	li	a5,-1
     bde:	fcf42c23          	sw	a5,-40(s0)
  wait(&st2);
     be2:	fd840513          	addi	a0,s0,-40
     be6:	00000097          	auipc	ra,0x0
     bea:	322080e7          	jalr	802(ra) # f08 <wait>

  exit(0);
     bee:	4501                	li	a0,0
     bf0:	00000097          	auipc	ra,0x0
     bf4:	310080e7          	jalr	784(ra) # f00 <exit>
    kill(pid1);
     bf8:	8526                	mv	a0,s1
     bfa:	00000097          	auipc	ra,0x0
     bfe:	336080e7          	jalr	822(ra) # f30 <kill>
    kill(pid2);
     c02:	854a                	mv	a0,s2
     c04:	00000097          	auipc	ra,0x0
     c08:	32c080e7          	jalr	812(ra) # f30 <kill>
     c0c:	bfc1                	j	bdc <iter+0xd6>

0000000000000c0e <main>:
}

int
main()
{
     c0e:	1101                	addi	sp,sp,-32
     c10:	ec06                	sd	ra,24(sp)
     c12:	e822                	sd	s0,16(sp)
     c14:	e426                	sd	s1,8(sp)
     c16:	e04a                	sd	s2,0(sp)
     c18:	1000                	addi	s0,sp,32
      exit(0);
    }
    if(pid > 0){
      wait(0);
    }
    sleep(20);
     c1a:	4951                	li	s2,20
    rand_next += 1;
     c1c:	00001497          	auipc	s1,0x1
     c20:	3e448493          	addi	s1,s1,996 # 2000 <rand_next>
     c24:	a829                	j	c3e <main+0x30>
      iter();
     c26:	00000097          	auipc	ra,0x0
     c2a:	ee0080e7          	jalr	-288(ra) # b06 <iter>
    sleep(20);
     c2e:	854a                	mv	a0,s2
     c30:	00000097          	auipc	ra,0x0
     c34:	360080e7          	jalr	864(ra) # f90 <sleep>
    rand_next += 1;
     c38:	609c                	ld	a5,0(s1)
     c3a:	0785                	addi	a5,a5,1
     c3c:	e09c                	sd	a5,0(s1)
    int pid = fork();
     c3e:	00000097          	auipc	ra,0x0
     c42:	2ba080e7          	jalr	698(ra) # ef8 <fork>
    if(pid == 0){
     c46:	d165                	beqz	a0,c26 <main+0x18>
    if(pid > 0){
     c48:	fea053e3          	blez	a0,c2e <main+0x20>
      wait(0);
     c4c:	4501                	li	a0,0
     c4e:	00000097          	auipc	ra,0x0
     c52:	2ba080e7          	jalr	698(ra) # f08 <wait>
     c56:	bfe1                	j	c2e <main+0x20>

0000000000000c58 <_main>:
//
// wrapper so that it's OK if main() does not call exit().
//
void
_main()
{
     c58:	1141                	addi	sp,sp,-16
     c5a:	e406                	sd	ra,8(sp)
     c5c:	e022                	sd	s0,0(sp)
     c5e:	0800                	addi	s0,sp,16
  extern int main();
  main();
     c60:	00000097          	auipc	ra,0x0
     c64:	fae080e7          	jalr	-82(ra) # c0e <main>
  exit(0);
     c68:	4501                	li	a0,0
     c6a:	00000097          	auipc	ra,0x0
     c6e:	296080e7          	jalr	662(ra) # f00 <exit>

0000000000000c72 <strcpy>:
}

char*
strcpy(char *s, const char *t)
{
     c72:	1141                	addi	sp,sp,-16
     c74:	e406                	sd	ra,8(sp)
     c76:	e022                	sd	s0,0(sp)
     c78:	0800                	addi	s0,sp,16
  char *os;

  os = s;
  while((*s++ = *t++) != 0)
     c7a:	87aa                	mv	a5,a0
     c7c:	0585                	addi	a1,a1,1
     c7e:	0785                	addi	a5,a5,1
     c80:	fff5c703          	lbu	a4,-1(a1)
     c84:	fee78fa3          	sb	a4,-1(a5)
     c88:	fb75                	bnez	a4,c7c <strcpy+0xa>
    ;
  return os;
}
     c8a:	60a2                	ld	ra,8(sp)
     c8c:	6402                	ld	s0,0(sp)
     c8e:	0141                	addi	sp,sp,16
     c90:	8082                	ret

0000000000000c92 <strcmp>:

int
strcmp(const char *p, const char *q)
{
     c92:	1141                	addi	sp,sp,-16
     c94:	e406                	sd	ra,8(sp)
     c96:	e022                	sd	s0,0(sp)
     c98:	0800                	addi	s0,sp,16
  while(*p && *p == *q)
     c9a:	00054783          	lbu	a5,0(a0)
     c9e:	cb91                	beqz	a5,cb2 <strcmp+0x20>
     ca0:	0005c703          	lbu	a4,0(a1)
     ca4:	00f71763          	bne	a4,a5,cb2 <strcmp+0x20>
    p++, q++;
     ca8:	0505                	addi	a0,a0,1
     caa:	0585                	addi	a1,a1,1
  while(*p && *p == *q)
     cac:	00054783          	lbu	a5,0(a0)
     cb0:	fbe5                	bnez	a5,ca0 <strcmp+0xe>
  return (uchar)*p - (uchar)*q;
     cb2:	0005c503          	lbu	a0,0(a1)
}
     cb6:	40a7853b          	subw	a0,a5,a0
     cba:	60a2                	ld	ra,8(sp)
     cbc:	6402                	ld	s0,0(sp)
     cbe:	0141                	addi	sp,sp,16
     cc0:	8082                	ret

0000000000000cc2 <strlen>:

uint
strlen(const char *s)
{
     cc2:	1141                	addi	sp,sp,-16
     cc4:	e406                	sd	ra,8(sp)
     cc6:	e022                	sd	s0,0(sp)
     cc8:	0800                	addi	s0,sp,16
  int n;

  for(n = 0; s[n]; n++)
     cca:	00054783          	lbu	a5,0(a0)
     cce:	cf91                	beqz	a5,cea <strlen+0x28>
     cd0:	00150793          	addi	a5,a0,1
     cd4:	86be                	mv	a3,a5
     cd6:	0785                	addi	a5,a5,1
     cd8:	fff7c703          	lbu	a4,-1(a5)
     cdc:	ff65                	bnez	a4,cd4 <strlen+0x12>
     cde:	40a6853b          	subw	a0,a3,a0
    ;
  return n;
}
     ce2:	60a2                	ld	ra,8(sp)
     ce4:	6402                	ld	s0,0(sp)
     ce6:	0141                	addi	sp,sp,16
     ce8:	8082                	ret
  for(n = 0; s[n]; n++)
     cea:	4501                	li	a0,0
     cec:	bfdd                	j	ce2 <strlen+0x20>

0000000000000cee <memset>:

void*
memset(void *dst, int c, uint n)
{
     cee:	1141                	addi	sp,sp,-16
     cf0:	e406                	sd	ra,8(sp)
     cf2:	e022                	sd	s0,0(sp)
     cf4:	0800                	addi	s0,sp,16
  char *cdst = (char *) dst;
  int i;
  for(i = 0; i < n; i++){
     cf6:	ca19                	beqz	a2,d0c <memset+0x1e>
     cf8:	87aa                	mv	a5,a0
     cfa:	1602                	slli	a2,a2,0x20
     cfc:	9201                	srli	a2,a2,0x20
     cfe:	00a60733          	add	a4,a2,a0
    cdst[i] = c;
     d02:	00b78023          	sb	a1,0(a5)
  for(i = 0; i < n; i++){
     d06:	0785                	addi	a5,a5,1
     d08:	fee79de3          	bne	a5,a4,d02 <memset+0x14>
  }
  return dst;
}
     d0c:	60a2                	ld	ra,8(sp)
     d0e:	6402                	ld	s0,0(sp)
     d10:	0141                	addi	sp,sp,16
     d12:	8082                	ret

0000000000000d14 <strchr>:

char*
strchr(const char *s, char c)
{
     d14:	1141                	addi	sp,sp,-16
     d16:	e406                	sd	ra,8(sp)
     d18:	e022                	sd	s0,0(sp)
     d1a:	0800                	addi	s0,sp,16
  for(; *s; s++)
     d1c:	00054783          	lbu	a5,0(a0)
     d20:	cf81                	beqz	a5,d38 <strchr+0x24>
    if(*s == c)
     d22:	00f58763          	beq	a1,a5,d30 <strchr+0x1c>
  for(; *s; s++)
     d26:	0505                	addi	a0,a0,1
     d28:	00054783          	lbu	a5,0(a0)
     d2c:	fbfd                	bnez	a5,d22 <strchr+0xe>
      return (char*)s;
  return 0;
     d2e:	4501                	li	a0,0
}
     d30:	60a2                	ld	ra,8(sp)
     d32:	6402                	ld	s0,0(sp)
     d34:	0141                	addi	sp,sp,16
     d36:	8082                	ret
  return 0;
     d38:	4501                	li	a0,0
     d3a:	bfdd                	j	d30 <strchr+0x1c>

0000000000000d3c <gets>:

char*
gets(char *buf, int max)
{
     d3c:	711d                	addi	sp,sp,-96
     d3e:	ec86                	sd	ra,88(sp)
     d40:	e8a2                	sd	s0,80(sp)
     d42:	e4a6                	sd	s1,72(sp)
     d44:	e0ca                	sd	s2,64(sp)
     d46:	fc4e                	sd	s3,56(sp)
     d48:	f852                	sd	s4,48(sp)
     d4a:	f456                	sd	s5,40(sp)
     d4c:	f05a                	sd	s6,32(sp)
     d4e:	ec5e                	sd	s7,24(sp)
     d50:	e862                	sd	s8,16(sp)
     d52:	1080                	addi	s0,sp,96
     d54:	8baa                	mv	s7,a0
     d56:	8a2e                	mv	s4,a1
  int i, cc;
  char c;

  for(i=0; i+1 < max; ){
     d58:	892a                	mv	s2,a0
     d5a:	4481                	li	s1,0
    cc = read(0, &c, 1);
     d5c:	faf40b13          	addi	s6,s0,-81
     d60:	4a85                	li	s5,1
  for(i=0; i+1 < max; ){
     d62:	8c26                	mv	s8,s1
     d64:	0014899b          	addiw	s3,s1,1
     d68:	84ce                	mv	s1,s3
     d6a:	0349d663          	bge	s3,s4,d96 <gets+0x5a>
    cc = read(0, &c, 1);
     d6e:	8656                	mv	a2,s5
     d70:	85da                	mv	a1,s6
     d72:	4501                	li	a0,0
     d74:	00000097          	auipc	ra,0x0
     d78:	1a4080e7          	jalr	420(ra) # f18 <read>
    if(cc < 1)
     d7c:	00a05d63          	blez	a0,d96 <gets+0x5a>
      break;
    buf[i++] = c;
     d80:	faf44783          	lbu	a5,-81(s0)
     d84:	00f90023          	sb	a5,0(s2)
    if(c == '\n' || c == '\r')
     d88:	0905                	addi	s2,s2,1
     d8a:	ff678713          	addi	a4,a5,-10
     d8e:	c319                	beqz	a4,d94 <gets+0x58>
     d90:	17cd                	addi	a5,a5,-13
     d92:	fbe1                	bnez	a5,d62 <gets+0x26>
    buf[i++] = c;
     d94:	8c4e                	mv	s8,s3
      break;
  }
  buf[i] = '\0';
     d96:	9c5e                	add	s8,s8,s7
     d98:	000c0023          	sb	zero,0(s8)
  return buf;
}
     d9c:	855e                	mv	a0,s7
     d9e:	60e6                	ld	ra,88(sp)
     da0:	6446                	ld	s0,80(sp)
     da2:	64a6                	ld	s1,72(sp)
     da4:	6906                	ld	s2,64(sp)
     da6:	79e2                	ld	s3,56(sp)
     da8:	7a42                	ld	s4,48(sp)
     daa:	7aa2                	ld	s5,40(sp)
     dac:	7b02                	ld	s6,32(sp)
     dae:	6be2                	ld	s7,24(sp)
     db0:	6c42                	ld	s8,16(sp)
     db2:	6125                	addi	sp,sp,96
     db4:	8082                	ret

0000000000000db6 <stat>:

int
stat(const char *n, struct stat *st)
{
     db6:	1101                	addi	sp,sp,-32
     db8:	ec06                	sd	ra,24(sp)
     dba:	e822                	sd	s0,16(sp)
     dbc:	e04a                	sd	s2,0(sp)
     dbe:	1000                	addi	s0,sp,32
     dc0:	892e                	mv	s2,a1
  int fd;
  int r;

  fd = open(n, O_RDONLY);
     dc2:	4581                	li	a1,0
     dc4:	00000097          	auipc	ra,0x0
     dc8:	17c080e7          	jalr	380(ra) # f40 <open>
  if(fd < 0)
     dcc:	02054663          	bltz	a0,df8 <stat+0x42>
     dd0:	e426                	sd	s1,8(sp)
     dd2:	84aa                	mv	s1,a0
    return -1;
  r = fstat(fd, st);
     dd4:	85ca                	mv	a1,s2
     dd6:	00000097          	auipc	ra,0x0
     dda:	182080e7          	jalr	386(ra) # f58 <fstat>
     dde:	892a                	mv	s2,a0
  close(fd);
     de0:	8526                	mv	a0,s1
     de2:	00000097          	auipc	ra,0x0
     de6:	146080e7          	jalr	326(ra) # f28 <close>
  return r;
     dea:	64a2                	ld	s1,8(sp)
}
     dec:	854a                	mv	a0,s2
     dee:	60e2                	ld	ra,24(sp)
     df0:	6442                	ld	s0,16(sp)
     df2:	6902                	ld	s2,0(sp)
     df4:	6105                	addi	sp,sp,32
     df6:	8082                	ret
    return -1;
     df8:	57fd                	li	a5,-1
     dfa:	893e                	mv	s2,a5
     dfc:	bfc5                	j	dec <stat+0x36>

0000000000000dfe <atoi>:

int
atoi(const char *s)
{
     dfe:	1141                	addi	sp,sp,-16
     e00:	e406                	sd	ra,8(sp)
     e02:	e022                	sd	s0,0(sp)
     e04:	0800                	addi	s0,sp,16
  int n;

  n = 0;
  while('0' <= *s && *s <= '9')
     e06:	00054683          	lbu	a3,0(a0)
     e0a:	fd06879b          	addiw	a5,a3,-48
     e0e:	0ff7f793          	zext.b	a5,a5
     e12:	4625                	li	a2,9
     e14:	02f66963          	bltu	a2,a5,e46 <atoi+0x48>
     e18:	872a                	mv	a4,a0
  n = 0;
     e1a:	4501                	li	a0,0
    n = n*10 + *s++ - '0';
     e1c:	0705                	addi	a4,a4,1
     e1e:	0025179b          	slliw	a5,a0,0x2
     e22:	9fa9                	addw	a5,a5,a0
     e24:	0017979b          	slliw	a5,a5,0x1
     e28:	9fb5                	addw	a5,a5,a3
     e2a:	fd07851b          	addiw	a0,a5,-48
  while('0' <= *s && *s <= '9')
     e2e:	00074683          	lbu	a3,0(a4)
     e32:	fd06879b          	addiw	a5,a3,-48
     e36:	0ff7f793          	zext.b	a5,a5
     e3a:	fef671e3          	bgeu	a2,a5,e1c <atoi+0x1e>
  return n;
}
     e3e:	60a2                	ld	ra,8(sp)
     e40:	6402                	ld	s0,0(sp)
     e42:	0141                	addi	sp,sp,16
     e44:	8082                	ret
  n = 0;
     e46:	4501                	li	a0,0
     e48:	bfdd                	j	e3e <atoi+0x40>

0000000000000e4a <memmove>:

void*
memmove(void *vdst, const void *vsrc, int n)
{
     e4a:	1141                	addi	sp,sp,-16
     e4c:	e406                	sd	ra,8(sp)
     e4e:	e022                	sd	s0,0(sp)
     e50:	0800                	addi	s0,sp,16
  char *dst;
  const char *src;

  dst = vdst;
  src = vsrc;
  if (src > dst) {
     e52:	02b57563          	bgeu	a0,a1,e7c <memmove+0x32>
    while(n-- > 0)
     e56:	00c05f63          	blez	a2,e74 <memmove+0x2a>
     e5a:	1602                	slli	a2,a2,0x20
     e5c:	9201                	srli	a2,a2,0x20
     e5e:	00c507b3          	add	a5,a0,a2
  dst = vdst;
     e62:	872a                	mv	a4,a0
      *dst++ = *src++;
     e64:	0585                	addi	a1,a1,1
     e66:	0705                	addi	a4,a4,1
     e68:	fff5c683          	lbu	a3,-1(a1)
     e6c:	fed70fa3          	sb	a3,-1(a4)
    while(n-- > 0)
     e70:	fee79ae3          	bne	a5,a4,e64 <memmove+0x1a>
    src += n;
    while(n-- > 0)
      *--dst = *--src;
  }
  return vdst;
}
     e74:	60a2                	ld	ra,8(sp)
     e76:	6402                	ld	s0,0(sp)
     e78:	0141                	addi	sp,sp,16
     e7a:	8082                	ret
    while(n-- > 0)
     e7c:	fec05ce3          	blez	a2,e74 <memmove+0x2a>
    dst += n;
     e80:	00c50733          	add	a4,a0,a2
    src += n;
     e84:	95b2                	add	a1,a1,a2
     e86:	fff6079b          	addiw	a5,a2,-1
     e8a:	1782                	slli	a5,a5,0x20
     e8c:	9381                	srli	a5,a5,0x20
     e8e:	fff7c793          	not	a5,a5
     e92:	97ba                	add	a5,a5,a4
      *--dst = *--src;
     e94:	15fd                	addi	a1,a1,-1
     e96:	177d                	addi	a4,a4,-1
     e98:	0005c683          	lbu	a3,0(a1)
     e9c:	00d70023          	sb	a3,0(a4)
    while(n-- > 0)
     ea0:	fef71ae3          	bne	a4,a5,e94 <memmove+0x4a>
     ea4:	bfc1                	j	e74 <memmove+0x2a>

0000000000000ea6 <memcmp>:

int
memcmp(const void *s1, const void *s2, uint n)
{
     ea6:	1141                	addi	sp,sp,-16
     ea8:	e406                	sd	ra,8(sp)
     eaa:	e022                	sd	s0,0(sp)
     eac:	0800                	addi	s0,sp,16
  const char *p1 = s1, *p2 = s2;
  while (n-- > 0) {
     eae:	c61d                	beqz	a2,edc <memcmp+0x36>
     eb0:	1602                	slli	a2,a2,0x20
     eb2:	9201                	srli	a2,a2,0x20
     eb4:	00c506b3          	add	a3,a0,a2
    if (*p1 != *p2) {
     eb8:	00054783          	lbu	a5,0(a0)
     ebc:	0005c703          	lbu	a4,0(a1)
     ec0:	00e79863          	bne	a5,a4,ed0 <memcmp+0x2a>
      return *p1 - *p2;
    }
    p1++;
     ec4:	0505                	addi	a0,a0,1
    p2++;
     ec6:	0585                	addi	a1,a1,1
  while (n-- > 0) {
     ec8:	fed518e3          	bne	a0,a3,eb8 <memcmp+0x12>
  }
  return 0;
     ecc:	4501                	li	a0,0
     ece:	a019                	j	ed4 <memcmp+0x2e>
      return *p1 - *p2;
     ed0:	40e7853b          	subw	a0,a5,a4
}
     ed4:	60a2                	ld	ra,8(sp)
     ed6:	6402                	ld	s0,0(sp)
     ed8:	0141                	addi	sp,sp,16
     eda:	8082                	ret
  return 0;
     edc:	4501                	li	a0,0
     ede:	bfdd                	j	ed4 <memcmp+0x2e>

0000000000000ee0 <memcpy>:

void *
memcpy(void *dst, const void *src, uint n)
{
     ee0:	1141                	addi	sp,sp,-16
     ee2:	e406                	sd	ra,8(sp)
     ee4:	e022                	sd	s0,0(sp)
     ee6:	0800                	addi	s0,sp,16
  return memmove(dst, src, n);
     ee8:	00000097          	auipc	ra,0x0
     eec:	f62080e7          	jalr	-158(ra) # e4a <memmove>
}
     ef0:	60a2                	ld	ra,8(sp)
     ef2:	6402                	ld	s0,0(sp)
     ef4:	0141                	addi	sp,sp,16
     ef6:	8082                	ret

0000000000000ef8 <fork>:
# generated by usys.pl - do not edit
#include "kernel/syscall.h"
.global fork
fork:
 li a7, SYS_fork
     ef8:	4885                	li	a7,1
 ecall
     efa:	00000073          	ecall
 ret
     efe:	8082                	ret

0000000000000f00 <exit>:
.global exit
exit:
 li a7, SYS_exit
     f00:	4889                	li	a7,2
 ecall
     f02:	00000073          	ecall
 ret
     f06:	8082                	ret

0000000000000f08 <wait>:
.global wait
wait:
 li a7, SYS_wait
     f08:	488d                	li	a7,3
 ecall
     f0a:	00000073          	ecall
 ret
     f0e:	8082                	ret

0000000000000f10 <pipe>:
.global pipe
pipe:
 li a7, SYS_pipe
     f10:	4891                	li	a7,4
 ecall
     f12:	00000073          	ecall
 ret
     f16:	8082                	ret

0000000000000f18 <read>:
.global read
read:
 li a7, SYS_read
     f18:	4895                	li	a7,5
 ecall
     f1a:	00000073          	ecall
 ret
     f1e:	8082                	ret

0000000000000f20 <write>:
.global write
write:
 li a7, SYS_write
     f20:	48c1                	li	a7,16
 ecall
     f22:	00000073          	ecall
 ret
     f26:	8082                	ret

0000000000000f28 <close>:
.global close
close:
 li a7, SYS_close
     f28:	48d5                	li	a7,21
 ecall
     f2a:	00000073          	ecall
 ret
     f2e:	8082                	ret

0000000000000f30 <kill>:
.global kill
kill:
 li a7, SYS_kill
     f30:	4899                	li	a7,6
 ecall
     f32:	00000073          	ecall
 ret
     f36:	8082                	ret

0000000000000f38 <exec>:
.global exec
exec:
 li a7, SYS_exec
     f38:	489d                	li	a7,7
 ecall
     f3a:	00000073          	ecall
 ret
     f3e:	8082                	ret

0000000000000f40 <open>:
.global open
open:
 li a7, SYS_open
     f40:	48bd                	li	a7,15
 ecall
     f42:	00000073          	ecall
 ret
     f46:	8082                	ret

0000000000000f48 <mknod>:
.global mknod
mknod:
 li a7, SYS_mknod
     f48:	48c5                	li	a7,17
 ecall
     f4a:	00000073          	ecall
 ret
     f4e:	8082                	ret

0000000000000f50 <unlink>:
.global unlink
unlink:
 li a7, SYS_unlink
     f50:	48c9                	li	a7,18
 ecall
     f52:	00000073          	ecall
 ret
     f56:	8082                	ret

0000000000000f58 <fstat>:
.global fstat
fstat:
 li a7, SYS_fstat
     f58:	48a1                	li	a7,8
 ecall
     f5a:	00000073          	ecall
 ret
     f5e:	8082                	ret

0000000000000f60 <link>:
.global link
link:
 li a7, SYS_link
     f60:	48cd                	li	a7,19
 ecall
     f62:	00000073          	ecall
 ret
     f66:	8082                	ret

0000000000000f68 <mkdir>:
.global mkdir
mkdir:
 li a7, SYS_mkdir
     f68:	48d1                	li	a7,20
 ecall
     f6a:	00000073          	ecall
 ret
     f6e:	8082                	ret

0000000000000f70 <chdir>:
.global chdir
chdir:
 li a7, SYS_chdir
     f70:	48a5                	li	a7,9
 ecall
     f72:	00000073          	ecall
 ret
     f76:	8082                	ret

0000000000000f78 <dup>:
.global dup
dup:
 li a7, SYS_dup
     f78:	48a9                	li	a7,10
 ecall
     f7a:	00000073          	ecall
 ret
     f7e:	8082                	ret

0000000000000f80 <getpid>:
.global getpid
getpid:
 li a7, SYS_getpid
     f80:	48ad                	li	a7,11
 ecall
     f82:	00000073          	ecall
 ret
     f86:	8082                	ret

0000000000000f88 <sbrk>:
.global sbrk
sbrk:
 li a7, SYS_sbrk
     f88:	48b1                	li	a7,12
 ecall
     f8a:	00000073          	ecall
 ret
     f8e:	8082                	ret

0000000000000f90 <sleep>:
.global sleep
sleep:
 li a7, SYS_sleep
     f90:	48b5                	li	a7,13
 ecall
     f92:	00000073          	ecall
 ret
     f96:	8082                	ret

0000000000000f98 <uptime>:
.global uptime
uptime:
 li a7, SYS_uptime
     f98:	48b9                	li	a7,14
 ecall
     f9a:	00000073          	ecall
 ret
     f9e:	8082                	ret

0000000000000fa0 <set_ps_priority>:
.global set_ps_priority
set_ps_priority:
 li a7, SYS_set_ps_priority
     fa0:	48d9                	li	a7,22
 ecall
     fa2:	00000073          	ecall
 ret
     fa6:	8082                	ret

0000000000000fa8 <putc>:

static char digits[] = "0123456789ABCDEF";

static void
putc(int fd, char c)
{
     fa8:	1101                	addi	sp,sp,-32
     faa:	ec06                	sd	ra,24(sp)
     fac:	e822                	sd	s0,16(sp)
     fae:	1000                	addi	s0,sp,32
     fb0:	feb407a3          	sb	a1,-17(s0)
  write(fd, &c, 1);
     fb4:	4605                	li	a2,1
     fb6:	fef40593          	addi	a1,s0,-17
     fba:	00000097          	auipc	ra,0x0
     fbe:	f66080e7          	jalr	-154(ra) # f20 <write>
}
     fc2:	60e2                	ld	ra,24(sp)
     fc4:	6442                	ld	s0,16(sp)
     fc6:	6105                	addi	sp,sp,32
     fc8:	8082                	ret

0000000000000fca <printint>:

static void
printint(int fd, int xx, int base, int sgn)
{
     fca:	7139                	addi	sp,sp,-64
     fcc:	fc06                	sd	ra,56(sp)
     fce:	f822                	sd	s0,48(sp)
     fd0:	f04a                	sd	s2,32(sp)
     fd2:	ec4e                	sd	s3,24(sp)
     fd4:	0080                	addi	s0,sp,64
     fd6:	892a                	mv	s2,a0
  char buf[16];
  int i, neg;
  uint x;

  neg = 0;
  if(sgn && xx < 0){
     fd8:	cad9                	beqz	a3,106e <printint+0xa4>
     fda:	01f5d79b          	srliw	a5,a1,0x1f
     fde:	cbc1                	beqz	a5,106e <printint+0xa4>
    neg = 1;
    x = -xx;
     fe0:	40b005bb          	negw	a1,a1
    neg = 1;
     fe4:	4305                	li	t1,1
  } else {
    x = xx;
  }

  i = 0;
     fe6:	fc040993          	addi	s3,s0,-64
  neg = 0;
     fea:	86ce                	mv	a3,s3
  i = 0;
     fec:	4701                	li	a4,0
  do{
    buf[i++] = digits[x % base];
     fee:	00001817          	auipc	a6,0x1
     ff2:	80a80813          	addi	a6,a6,-2038 # 17f8 <digits>
     ff6:	88ba                	mv	a7,a4
     ff8:	0017051b          	addiw	a0,a4,1
     ffc:	872a                	mv	a4,a0
     ffe:	02c5f7bb          	remuw	a5,a1,a2
    1002:	1782                	slli	a5,a5,0x20
    1004:	9381                	srli	a5,a5,0x20
    1006:	97c2                	add	a5,a5,a6
    1008:	0007c783          	lbu	a5,0(a5)
    100c:	00f68023          	sb	a5,0(a3)
  }while((x /= base) != 0);
    1010:	87ae                	mv	a5,a1
    1012:	02c5d5bb          	divuw	a1,a1,a2
    1016:	0685                	addi	a3,a3,1
    1018:	fcc7ffe3          	bgeu	a5,a2,ff6 <printint+0x2c>
  if(neg)
    101c:	00030c63          	beqz	t1,1034 <printint+0x6a>
    buf[i++] = '-';
    1020:	fd050793          	addi	a5,a0,-48
    1024:	00878533          	add	a0,a5,s0
    1028:	02d00793          	li	a5,45
    102c:	fef50823          	sb	a5,-16(a0)
    1030:	0028871b          	addiw	a4,a7,2

  while(--i >= 0)
    1034:	02e05763          	blez	a4,1062 <printint+0x98>
    1038:	f426                	sd	s1,40(sp)
    103a:	377d                	addiw	a4,a4,-1
    103c:	00e984b3          	add	s1,s3,a4
    1040:	19fd                	addi	s3,s3,-1
    1042:	99ba                	add	s3,s3,a4
    1044:	1702                	slli	a4,a4,0x20
    1046:	9301                	srli	a4,a4,0x20
    1048:	40e989b3          	sub	s3,s3,a4
    putc(fd, buf[i]);
    104c:	0004c583          	lbu	a1,0(s1)
    1050:	854a                	mv	a0,s2
    1052:	00000097          	auipc	ra,0x0
    1056:	f56080e7          	jalr	-170(ra) # fa8 <putc>
  while(--i >= 0)
    105a:	14fd                	addi	s1,s1,-1
    105c:	ff3498e3          	bne	s1,s3,104c <printint+0x82>
    1060:	74a2                	ld	s1,40(sp)
}
    1062:	70e2                	ld	ra,56(sp)
    1064:	7442                	ld	s0,48(sp)
    1066:	7902                	ld	s2,32(sp)
    1068:	69e2                	ld	s3,24(sp)
    106a:	6121                	addi	sp,sp,64
    106c:	8082                	ret
  neg = 0;
    106e:	4301                	li	t1,0
    1070:	bf9d                	j	fe6 <printint+0x1c>

0000000000001072 <vprintf>:
}

// Print to the given fd. Only understands %d, %x, %p, %s.
void
vprintf(int fd, const char *fmt, va_list ap)
{
    1072:	715d                	addi	sp,sp,-80
    1074:	e486                	sd	ra,72(sp)
    1076:	e0a2                	sd	s0,64(sp)
    1078:	f84a                	sd	s2,48(sp)
    107a:	0880                	addi	s0,sp,80
  char *s;
  int c, i, state;

  state = 0;
  for(i = 0; fmt[i]; i++){
    107c:	0005c903          	lbu	s2,0(a1)
    1080:	1a090b63          	beqz	s2,1236 <vprintf+0x1c4>
    1084:	fc26                	sd	s1,56(sp)
    1086:	f44e                	sd	s3,40(sp)
    1088:	f052                	sd	s4,32(sp)
    108a:	ec56                	sd	s5,24(sp)
    108c:	e85a                	sd	s6,16(sp)
    108e:	e45e                	sd	s7,8(sp)
    1090:	8aaa                	mv	s5,a0
    1092:	8bb2                	mv	s7,a2
    1094:	00158493          	addi	s1,a1,1
  state = 0;
    1098:	4981                	li	s3,0
      if(c == '%'){
        state = '%';
      } else {
        putc(fd, c);
      }
    } else if(state == '%'){
    109a:	02500a13          	li	s4,37
    109e:	4b55                	li	s6,21
    10a0:	a839                	j	10be <vprintf+0x4c>
        putc(fd, c);
    10a2:	85ca                	mv	a1,s2
    10a4:	8556                	mv	a0,s5
    10a6:	00000097          	auipc	ra,0x0
    10aa:	f02080e7          	jalr	-254(ra) # fa8 <putc>
    10ae:	a019                	j	10b4 <vprintf+0x42>
    } else if(state == '%'){
    10b0:	01498d63          	beq	s3,s4,10ca <vprintf+0x58>
  for(i = 0; fmt[i]; i++){
    10b4:	0485                	addi	s1,s1,1
    10b6:	fff4c903          	lbu	s2,-1(s1)
    10ba:	16090863          	beqz	s2,122a <vprintf+0x1b8>
    if(state == 0){
    10be:	fe0999e3          	bnez	s3,10b0 <vprintf+0x3e>
      if(c == '%'){
    10c2:	ff4910e3          	bne	s2,s4,10a2 <vprintf+0x30>
        state = '%';
    10c6:	89d2                	mv	s3,s4
    10c8:	b7f5                	j	10b4 <vprintf+0x42>
      if(c == 'd'){
    10ca:	13490563          	beq	s2,s4,11f4 <vprintf+0x182>
    10ce:	f9d9079b          	addiw	a5,s2,-99
    10d2:	0ff7f793          	zext.b	a5,a5
    10d6:	12fb6863          	bltu	s6,a5,1206 <vprintf+0x194>
    10da:	f9d9079b          	addiw	a5,s2,-99
    10de:	0ff7f713          	zext.b	a4,a5
    10e2:	12eb6263          	bltu	s6,a4,1206 <vprintf+0x194>
    10e6:	00271793          	slli	a5,a4,0x2
    10ea:	00000717          	auipc	a4,0x0
    10ee:	6b670713          	addi	a4,a4,1718 # 17a0 <malloc+0x476>
    10f2:	97ba                	add	a5,a5,a4
    10f4:	439c                	lw	a5,0(a5)
    10f6:	97ba                	add	a5,a5,a4
    10f8:	8782                	jr	a5
        printint(fd, va_arg(ap, int), 10, 1);
    10fa:	008b8913          	addi	s2,s7,8
    10fe:	4685                	li	a3,1
    1100:	4629                	li	a2,10
    1102:	000ba583          	lw	a1,0(s7)
    1106:	8556                	mv	a0,s5
    1108:	00000097          	auipc	ra,0x0
    110c:	ec2080e7          	jalr	-318(ra) # fca <printint>
    1110:	8bca                	mv	s7,s2
      } else {
        // Unknown % sequence.  Print it to draw attention.
        putc(fd, '%');
        putc(fd, c);
      }
      state = 0;
    1112:	4981                	li	s3,0
    1114:	b745                	j	10b4 <vprintf+0x42>
        printint(fd, va_arg(ap, uint64), 10, 0);
    1116:	008b8913          	addi	s2,s7,8
    111a:	4681                	li	a3,0
    111c:	4629                	li	a2,10
    111e:	000ba583          	lw	a1,0(s7)
    1122:	8556                	mv	a0,s5
    1124:	00000097          	auipc	ra,0x0
    1128:	ea6080e7          	jalr	-346(ra) # fca <printint>
    112c:	8bca                	mv	s7,s2
      state = 0;
    112e:	4981                	li	s3,0
    1130:	b751                	j	10b4 <vprintf+0x42>
        printint(fd, va_arg(ap, int), 16, 0);
    1132:	008b8913          	addi	s2,s7,8
    1136:	4681                	li	a3,0
    1138:	4641                	li	a2,16
    113a:	000ba583          	lw	a1,0(s7)
    113e:	8556                	mv	a0,s5
    1140:	00000097          	auipc	ra,0x0
    1144:	e8a080e7          	jalr	-374(ra) # fca <printint>
    1148:	8bca                	mv	s7,s2
      state = 0;
    114a:	4981                	li	s3,0
    114c:	b7a5                	j	10b4 <vprintf+0x42>
    114e:	e062                	sd	s8,0(sp)
        printptr(fd, va_arg(ap, uint64));
    1150:	008b8793          	addi	a5,s7,8
    1154:	8c3e                	mv	s8,a5
    1156:	000bb983          	ld	s3,0(s7)
  putc(fd, '0');
    115a:	03000593          	li	a1,48
    115e:	8556                	mv	a0,s5
    1160:	00000097          	auipc	ra,0x0
    1164:	e48080e7          	jalr	-440(ra) # fa8 <putc>
  putc(fd, 'x');
    1168:	07800593          	li	a1,120
    116c:	8556                	mv	a0,s5
    116e:	00000097          	auipc	ra,0x0
    1172:	e3a080e7          	jalr	-454(ra) # fa8 <putc>
    1176:	4941                	li	s2,16
    putc(fd, digits[x >> (sizeof(uint64) * 8 - 4)]);
    1178:	00000b97          	auipc	s7,0x0
    117c:	680b8b93          	addi	s7,s7,1664 # 17f8 <digits>
    1180:	03c9d793          	srli	a5,s3,0x3c
    1184:	97de                	add	a5,a5,s7
    1186:	0007c583          	lbu	a1,0(a5)
    118a:	8556                	mv	a0,s5
    118c:	00000097          	auipc	ra,0x0
    1190:	e1c080e7          	jalr	-484(ra) # fa8 <putc>
  for (i = 0; i < (sizeof(uint64) * 2); i++, x <<= 4)
    1194:	0992                	slli	s3,s3,0x4
    1196:	397d                	addiw	s2,s2,-1
    1198:	fe0914e3          	bnez	s2,1180 <vprintf+0x10e>
        printptr(fd, va_arg(ap, uint64));
    119c:	8be2                	mv	s7,s8
      state = 0;
    119e:	4981                	li	s3,0
    11a0:	6c02                	ld	s8,0(sp)
    11a2:	bf09                	j	10b4 <vprintf+0x42>
        s = va_arg(ap, char*);
    11a4:	008b8993          	addi	s3,s7,8
    11a8:	000bb903          	ld	s2,0(s7)
        if(s == 0)
    11ac:	02090163          	beqz	s2,11ce <vprintf+0x15c>
        while(*s != 0){
    11b0:	00094583          	lbu	a1,0(s2)
    11b4:	c9a5                	beqz	a1,1224 <vprintf+0x1b2>
          putc(fd, *s);
    11b6:	8556                	mv	a0,s5
    11b8:	00000097          	auipc	ra,0x0
    11bc:	df0080e7          	jalr	-528(ra) # fa8 <putc>
          s++;
    11c0:	0905                	addi	s2,s2,1
        while(*s != 0){
    11c2:	00094583          	lbu	a1,0(s2)
    11c6:	f9e5                	bnez	a1,11b6 <vprintf+0x144>
        s = va_arg(ap, char*);
    11c8:	8bce                	mv	s7,s3
      state = 0;
    11ca:	4981                	li	s3,0
    11cc:	b5e5                	j	10b4 <vprintf+0x42>
          s = "(null)";
    11ce:	00000917          	auipc	s2,0x0
    11d2:	56a90913          	addi	s2,s2,1386 # 1738 <malloc+0x40e>
        while(*s != 0){
    11d6:	02800593          	li	a1,40
    11da:	bff1                	j	11b6 <vprintf+0x144>
        putc(fd, va_arg(ap, uint));
    11dc:	008b8913          	addi	s2,s7,8
    11e0:	000bc583          	lbu	a1,0(s7)
    11e4:	8556                	mv	a0,s5
    11e6:	00000097          	auipc	ra,0x0
    11ea:	dc2080e7          	jalr	-574(ra) # fa8 <putc>
    11ee:	8bca                	mv	s7,s2
      state = 0;
    11f0:	4981                	li	s3,0
    11f2:	b5c9                	j	10b4 <vprintf+0x42>
        putc(fd, c);
    11f4:	02500593          	li	a1,37
    11f8:	8556                	mv	a0,s5
    11fa:	00000097          	auipc	ra,0x0
    11fe:	dae080e7          	jalr	-594(ra) # fa8 <putc>
      state = 0;
    1202:	4981                	li	s3,0
    1204:	bd45                	j	10b4 <vprintf+0x42>
        putc(fd, '%');
    1206:	02500593          	li	a1,37
    120a:	8556                	mv	a0,s5
    120c:	00000097          	auipc	ra,0x0
    1210:	d9c080e7          	jalr	-612(ra) # fa8 <putc>
        putc(fd, c);
    1214:	85ca                	mv	a1,s2
    1216:	8556                	mv	a0,s5
    1218:	00000097          	auipc	ra,0x0
    121c:	d90080e7          	jalr	-624(ra) # fa8 <putc>
      state = 0;
    1220:	4981                	li	s3,0
    1222:	bd49                	j	10b4 <vprintf+0x42>
        s = va_arg(ap, char*);
    1224:	8bce                	mv	s7,s3
      state = 0;
    1226:	4981                	li	s3,0
    1228:	b571                	j	10b4 <vprintf+0x42>
    122a:	74e2                	ld	s1,56(sp)
    122c:	79a2                	ld	s3,40(sp)
    122e:	7a02                	ld	s4,32(sp)
    1230:	6ae2                	ld	s5,24(sp)
    1232:	6b42                	ld	s6,16(sp)
    1234:	6ba2                	ld	s7,8(sp)
    }
  }
}
    1236:	60a6                	ld	ra,72(sp)
    1238:	6406                	ld	s0,64(sp)
    123a:	7942                	ld	s2,48(sp)
    123c:	6161                	addi	sp,sp,80
    123e:	8082                	ret

0000000000001240 <fprintf>:

void
fprintf(int fd, const char *fmt, ...)
{
    1240:	715d                	addi	sp,sp,-80
    1242:	ec06                	sd	ra,24(sp)
    1244:	e822                	sd	s0,16(sp)
    1246:	1000                	addi	s0,sp,32
    1248:	e010                	sd	a2,0(s0)
    124a:	e414                	sd	a3,8(s0)
    124c:	e818                	sd	a4,16(s0)
    124e:	ec1c                	sd	a5,24(s0)
    1250:	03043023          	sd	a6,32(s0)
    1254:	03143423          	sd	a7,40(s0)
  va_list ap;

  va_start(ap, fmt);
    1258:	8622                	mv	a2,s0
    125a:	fe843423          	sd	s0,-24(s0)
  vprintf(fd, fmt, ap);
    125e:	00000097          	auipc	ra,0x0
    1262:	e14080e7          	jalr	-492(ra) # 1072 <vprintf>
}
    1266:	60e2                	ld	ra,24(sp)
    1268:	6442                	ld	s0,16(sp)
    126a:	6161                	addi	sp,sp,80
    126c:	8082                	ret

000000000000126e <printf>:

void
printf(const char *fmt, ...)
{
    126e:	711d                	addi	sp,sp,-96
    1270:	ec06                	sd	ra,24(sp)
    1272:	e822                	sd	s0,16(sp)
    1274:	1000                	addi	s0,sp,32
    1276:	e40c                	sd	a1,8(s0)
    1278:	e810                	sd	a2,16(s0)
    127a:	ec14                	sd	a3,24(s0)
    127c:	f018                	sd	a4,32(s0)
    127e:	f41c                	sd	a5,40(s0)
    1280:	03043823          	sd	a6,48(s0)
    1284:	03143c23          	sd	a7,56(s0)
  va_list ap;

  va_start(ap, fmt);
    1288:	00840613          	addi	a2,s0,8
    128c:	fec43423          	sd	a2,-24(s0)
  vprintf(1, fmt, ap);
    1290:	85aa                	mv	a1,a0
    1292:	4505                	li	a0,1
    1294:	00000097          	auipc	ra,0x0
    1298:	dde080e7          	jalr	-546(ra) # 1072 <vprintf>
}
    129c:	60e2                	ld	ra,24(sp)
    129e:	6442                	ld	s0,16(sp)
    12a0:	6125                	addi	sp,sp,96
    12a2:	8082                	ret

00000000000012a4 <free>:
static Header base;
static Header *freep;

void
free(void *ap)
{
    12a4:	1141                	addi	sp,sp,-16
    12a6:	e406                	sd	ra,8(sp)
    12a8:	e022                	sd	s0,0(sp)
    12aa:	0800                	addi	s0,sp,16
  Header *bp, *p;

  bp = (Header*)ap - 1;
    12ac:	ff050693          	addi	a3,a0,-16
  for(p = freep; !(bp > p && bp < p->s.ptr); p = p->s.ptr)
    12b0:	00001797          	auipc	a5,0x1
    12b4:	d607b783          	ld	a5,-672(a5) # 2010 <freep>
    12b8:	a039                	j	12c6 <free+0x22>
    if(p >= p->s.ptr && (bp > p || bp < p->s.ptr))
    12ba:	6398                	ld	a4,0(a5)
    12bc:	00e7e463          	bltu	a5,a4,12c4 <free+0x20>
    12c0:	00e6ea63          	bltu	a3,a4,12d4 <free+0x30>
{
    12c4:	87ba                	mv	a5,a4
  for(p = freep; !(bp > p && bp < p->s.ptr); p = p->s.ptr)
    12c6:	fed7fae3          	bgeu	a5,a3,12ba <free+0x16>
    12ca:	6398                	ld	a4,0(a5)
    12cc:	00e6e463          	bltu	a3,a4,12d4 <free+0x30>
    if(p >= p->s.ptr && (bp > p || bp < p->s.ptr))
    12d0:	fee7eae3          	bltu	a5,a4,12c4 <free+0x20>
      break;
  if(bp + bp->s.size == p->s.ptr){
    12d4:	ff852583          	lw	a1,-8(a0)
    12d8:	6390                	ld	a2,0(a5)
    12da:	02059813          	slli	a6,a1,0x20
    12de:	01c85713          	srli	a4,a6,0x1c
    12e2:	9736                	add	a4,a4,a3
    12e4:	02e60563          	beq	a2,a4,130e <free+0x6a>
    bp->s.size += p->s.ptr->s.size;
    bp->s.ptr = p->s.ptr->s.ptr;
    12e8:	fec53823          	sd	a2,-16(a0)
  } else
    bp->s.ptr = p->s.ptr;
  if(p + p->s.size == bp){
    12ec:	4790                	lw	a2,8(a5)
    12ee:	02061593          	slli	a1,a2,0x20
    12f2:	01c5d713          	srli	a4,a1,0x1c
    12f6:	973e                	add	a4,a4,a5
    12f8:	02e68263          	beq	a3,a4,131c <free+0x78>
    p->s.size += bp->s.size;
    p->s.ptr = bp->s.ptr;
    12fc:	e394                	sd	a3,0(a5)
  } else
    p->s.ptr = bp;
  freep = p;
    12fe:	00001717          	auipc	a4,0x1
    1302:	d0f73923          	sd	a5,-750(a4) # 2010 <freep>
}
    1306:	60a2                	ld	ra,8(sp)
    1308:	6402                	ld	s0,0(sp)
    130a:	0141                	addi	sp,sp,16
    130c:	8082                	ret
    bp->s.size += p->s.ptr->s.size;
    130e:	4618                	lw	a4,8(a2)
    1310:	9f2d                	addw	a4,a4,a1
    1312:	fee52c23          	sw	a4,-8(a0)
    bp->s.ptr = p->s.ptr->s.ptr;
    1316:	6398                	ld	a4,0(a5)
    1318:	6310                	ld	a2,0(a4)
    131a:	b7f9                	j	12e8 <free+0x44>
    p->s.size += bp->s.size;
    131c:	ff852703          	lw	a4,-8(a0)
    1320:	9f31                	addw	a4,a4,a2
    1322:	c798                	sw	a4,8(a5)
    p->s.ptr = bp->s.ptr;
    1324:	ff053683          	ld	a3,-16(a0)
    1328:	bfd1                	j	12fc <free+0x58>

000000000000132a <malloc>:
  return freep;
}

void*
malloc(uint nbytes)
{
    132a:	7139                	addi	sp,sp,-64
    132c:	fc06                	sd	ra,56(sp)
    132e:	f822                	sd	s0,48(sp)
    1330:	f04a                	sd	s2,32(sp)
    1332:	ec4e                	sd	s3,24(sp)
    1334:	0080                	addi	s0,sp,64
  Header *p, *prevp;
  uint nunits;

  nunits = (nbytes + sizeof(Header) - 1)/sizeof(Header) + 1;
    1336:	02051993          	slli	s3,a0,0x20
    133a:	0209d993          	srli	s3,s3,0x20
    133e:	09bd                	addi	s3,s3,15
    1340:	0049d993          	srli	s3,s3,0x4
    1344:	2985                	addiw	s3,s3,1
    1346:	894e                	mv	s2,s3
  if((prevp = freep) == 0){
    1348:	00001517          	auipc	a0,0x1
    134c:	cc853503          	ld	a0,-824(a0) # 2010 <freep>
    1350:	c905                	beqz	a0,1380 <malloc+0x56>
    base.s.ptr = freep = prevp = &base;
    base.s.size = 0;
  }
  for(p = prevp->s.ptr; ; prevp = p, p = p->s.ptr){
    1352:	611c                	ld	a5,0(a0)
    if(p->s.size >= nunits){
    1354:	4798                	lw	a4,8(a5)
    1356:	09377a63          	bgeu	a4,s3,13ea <malloc+0xc0>
    135a:	f426                	sd	s1,40(sp)
    135c:	e852                	sd	s4,16(sp)
    135e:	e456                	sd	s5,8(sp)
    1360:	e05a                	sd	s6,0(sp)
  if(nu < 4096)
    1362:	8a4e                	mv	s4,s3
    1364:	6705                	lui	a4,0x1
    1366:	00e9f363          	bgeu	s3,a4,136c <malloc+0x42>
    136a:	6a05                	lui	s4,0x1
    136c:	000a0b1b          	sext.w	s6,s4
  p = sbrk(nu * sizeof(Header));
    1370:	004a1a1b          	slliw	s4,s4,0x4
        p->s.size = nunits;
      }
      freep = prevp;
      return (void*)(p + 1);
    }
    if(p == freep)
    1374:	00001497          	auipc	s1,0x1
    1378:	c9c48493          	addi	s1,s1,-868 # 2010 <freep>
  if(p == (char*)-1)
    137c:	5afd                	li	s5,-1
    137e:	a089                	j	13c0 <malloc+0x96>
    1380:	f426                	sd	s1,40(sp)
    1382:	e852                	sd	s4,16(sp)
    1384:	e456                	sd	s5,8(sp)
    1386:	e05a                	sd	s6,0(sp)
    base.s.ptr = freep = prevp = &base;
    1388:	00001797          	auipc	a5,0x1
    138c:	08078793          	addi	a5,a5,128 # 2408 <base>
    1390:	00001717          	auipc	a4,0x1
    1394:	c8f73023          	sd	a5,-896(a4) # 2010 <freep>
    1398:	e39c                	sd	a5,0(a5)
    base.s.size = 0;
    139a:	0007a423          	sw	zero,8(a5)
    if(p->s.size >= nunits){
    139e:	b7d1                	j	1362 <malloc+0x38>
        prevp->s.ptr = p->s.ptr;
    13a0:	6398                	ld	a4,0(a5)
    13a2:	e118                	sd	a4,0(a0)
    13a4:	a8b9                	j	1402 <malloc+0xd8>
  hp->s.size = nu;
    13a6:	01652423          	sw	s6,8(a0)
  free((void*)(hp + 1));
    13aa:	0541                	addi	a0,a0,16
    13ac:	00000097          	auipc	ra,0x0
    13b0:	ef8080e7          	jalr	-264(ra) # 12a4 <free>
  return freep;
    13b4:	6088                	ld	a0,0(s1)
      if((p = morecore(nunits)) == 0)
    13b6:	c135                	beqz	a0,141a <malloc+0xf0>
  for(p = prevp->s.ptr; ; prevp = p, p = p->s.ptr){
    13b8:	611c                	ld	a5,0(a0)
    if(p->s.size >= nunits){
    13ba:	4798                	lw	a4,8(a5)
    13bc:	03277363          	bgeu	a4,s2,13e2 <malloc+0xb8>
    if(p == freep)
    13c0:	6098                	ld	a4,0(s1)
    13c2:	853e                	mv	a0,a5
    13c4:	fef71ae3          	bne	a4,a5,13b8 <malloc+0x8e>
  p = sbrk(nu * sizeof(Header));
    13c8:	8552                	mv	a0,s4
    13ca:	00000097          	auipc	ra,0x0
    13ce:	bbe080e7          	jalr	-1090(ra) # f88 <sbrk>
  if(p == (char*)-1)
    13d2:	fd551ae3          	bne	a0,s5,13a6 <malloc+0x7c>
        return 0;
    13d6:	4501                	li	a0,0
    13d8:	74a2                	ld	s1,40(sp)
    13da:	6a42                	ld	s4,16(sp)
    13dc:	6aa2                	ld	s5,8(sp)
    13de:	6b02                	ld	s6,0(sp)
    13e0:	a03d                	j	140e <malloc+0xe4>
    13e2:	74a2                	ld	s1,40(sp)
    13e4:	6a42                	ld	s4,16(sp)
    13e6:	6aa2                	ld	s5,8(sp)
    13e8:	6b02                	ld	s6,0(sp)
      if(p->s.size == nunits)
    13ea:	fae90be3          	beq	s2,a4,13a0 <malloc+0x76>
        p->s.size -= nunits;
    13ee:	4137073b          	subw	a4,a4,s3
    13f2:	c798                	sw	a4,8(a5)
        p += p->s.size;
    13f4:	02071693          	slli	a3,a4,0x20
    13f8:	01c6d713          	srli	a4,a3,0x1c
    13fc:	97ba                	add	a5,a5,a4
        p->s.size = nunits;
    13fe:	0137a423          	sw	s3,8(a5)
      freep = prevp;
    1402:	00001717          	auipc	a4,0x1
    1406:	c0a73723          	sd	a0,-1010(a4) # 2010 <freep>
      return (void*)(p + 1);
    140a:	01078513          	addi	a0,a5,16
  }
}
    140e:	70e2                	ld	ra,56(sp)
    1410:	7442                	ld	s0,48(sp)
    1412:	7902                	ld	s2,32(sp)
    1414:	69e2                	ld	s3,24(sp)
    1416:	6121                	addi	sp,sp,64
    1418:	8082                	ret
    141a:	74a2                	ld	s1,40(sp)
    141c:	6a42                	ld	s4,16(sp)
    141e:	6aa2                	ld	s5,8(sp)
    1420:	6b02                	ld	s6,0(sp)
    1422:	b7f5                	j	140e <malloc+0xe4>
